(dp0
Vdirges 
p1
(iforvo
ForvoResponse
p2
(dp3
S'num_recordings'
p4
I0
sS'recordings'
p5
(lp6
sS'json'
p7
(dp8
Vattributes
p9
(dp10
Vtotal
p11
I0
ssVitems
p12
(lp13
ssbsVme 
p14
(iforvo
ForvoResponse
p15
(dp16
g4
I1
sg5
(lp17
(dp18
S'ogg'
p19
Vhttp://apifree.forvo.com/audio/241f2f1k271b3421213b261b341h2c323k392f233n2m371k1g2b2n3h3g2m1j1i3a3h372a213723323j3j2c312i1l333a3q3o2g27362o3e2g3i2m3k3i24242f273p2a3e241f372n2a3n37263g272l3c252k35392432211t1t_3h281j212g3c2l1k3f3l3n2g2c213i211p293l371p3n1t1t
p20
sS'id'
p21
V163817
p22
sasg7
(dp23
Vattributes
p24
(dp25
Vtotal
p26
I1
ssVitems
p27
(lp28
(dp29
Vusername
p30
Vpalashdave
p31
sVhits
p32
V108
p33
sVcode
p34
Ven
p35
sVlangname
p36
VEnglish
p37
sVaddtime
p38
V2009-05-02 01:36:49
p39
sVpathogg
p40
g20
sVpathmp3
p41
Vhttp://apifree.forvo.com/audio/2g2h3k3p3c2d1p1j3d281i321l3h3i35291i34262c272j2l3h2c1o313p1l3l3h1m3k2f2a1m1k362b36332d3g1h1b372i2n1o2a2e1f2539231m2i1l1m1j3f2a1k1b371i1k3p25343m2m1l1h261m3e3e3q2h2i3o2325211t1t_2p1p1g322a253e3n1k3f3b3m2a1m3g271n2l1n3j31371t1t
p42
sVsex
p43
Vm
p44
sVrate
p45
V0
p46
sVnum_positive_votes
p47
I0
sVnum_votes
p48
V0
p49
sVcountry
p50
VUnited Kingdom
p51
sVid
p52
g22
sassbsVhappy 
p53
(iforvo
ForvoResponse
p54
(dp55
g4
I6
sg5
(lp56
(dp57
g19
Vhttp://apifree.forvo.com/audio/3i29252o1n352p271l242d233q2h2o222n2e1h2h3h2n1l38333o3g3f3k382c2e3c2c3135213m27253f1j2q2i332o3a2n2i3m1n3a2q2q3d1g1i1k3f1f2m2q2h1h_33382d2d2e2p1o3n2g3c262626272i32252b2b22333n1t1t
p58
sg21
V595833
p59
sa(dp60
g19
Vhttp://apifree.forvo.com/audio/2c1p1k1o3b2k381m352l2b3o2q3h3g3k1j2a3e1p28242d2b3j2b1l2a3l3o2l3c213j2l3i2b36233l261j361m313f2b1f2b3o1i3e211m352m3b3g343j1l323o2j_3a1h39253g2f2i3n3c1m1n372q1j232g292m3j3h3o2h1t1t
p61
sg21
V2875
p62
sa(dp63
g19
Vhttp://apifree.forvo.com/audio/3o2l3c1k1j3b231m2a3h251g1p3g2p2m2j2j3g392e2o1i3d3f3e3i1k1p3d1i3m362f2k213j2o2j3a3p3g272m3o3a2b2h1b3q1p2c3l2f2c1l3c373h2p1o2j2c3i_1m372i2f1g2o2k1h2k2d1k2h1i3a2q371b2d1j3m31211t1t
p64
sg21
V277710
p65
sa(dp66
g19
Vhttp://apifree.forvo.com/audio/3n353427241l2e3h3b3p2j2j3l2n31261h35241l3o3k3b1f24373835322b2n3h2j3139362a1f382e1j2q383f2g241k1l2a3a3i382g3p2o3c2m1p2c3o1i282h23_2c2h1f3h1l392k3d3c1h2a3o3f2h2n383b233g3i2d211t1t
p67
sg21
V577382
p68
sa(dp69
g19
Vhttp://apifree.forvo.com/audio/2f2k3h3f2n3q1g2n361b392f2k1h3j2c2d391o381b2a2i2m2k2q3j2g3i28212a1g2q1f231b2q1b3l2i3g3p243i213o31323p332i322921213l1b2n2h2l372p3q_2c1o3i3l3l3g1j353q3i2n1m1l3o1l3f343e3o391g3n1t1t
p70
sg21
V252993
p71
sa(dp72
g19
Vhttp://apifree.forvo.com/audio/253m2m3n242n1i291p1k2c2o3k3p1k3l22371n3k2n3d383o2d2e39311b3a3q3m223p3d3a343p2q1n1n331l2q2f1i1p1h25253m392a361m363h2i1m3n283e1n26_3d3934242h3m2q1j2l3a3q2q333d3n3a3k1k2d262k371t1t
p73
sg21
V309698
p74
sasg7
(dp75
Vattributes
p76
(dp77
Vtotal
p78
I6
ssVitems
p79
(lp80
(dp81
Vusername
p82
Vfloridagirl
p83
sVhits
p84
NsVcode
p85
Ven
p86
sVlangname
p87
VEnglish
p88
sVaddtime
p89
V2010-05-24 03:02:17
p90
sVpathogg
p91
g58
sVpathmp3
p92
Vhttp://apifree.forvo.com/audio/3h3j242h262b3p3i2i333b3d1k3n1m28362d3h242k2h1m1k2d3a312k2p253k2d392p2c352d351p3j3f3k1j3h2l3q2m3o2c3k252d3q2j351h382f3p3j1p3g362f_1m3h1f2k1o3m21332c1g1j3p1i321k2b2b1k24332g211t1t
p93
sVsex
p94
Vf
p95
sVrate
p96
V3
p97
sVnum_positive_votes
p98
V3
p99
sVnum_votes
p100
V3
p101
sVcountry
p102
VUnited States
p103
sVid
p104
g59
sa(dp105
Vusername
p106
VNells
p107
sVhits
p108
V976
p109
sVcode
p110
Ven
p111
sVlangname
p112
VEnglish
p113
sVaddtime
p114
V2008-04-04 17:50:58
p115
sVpathogg
p116
g61
sVpathmp3
p117
Vhttp://apifree.forvo.com/audio/1k2g3g1h342e2m2m2q3l3f1i1p243h2o2p333424243f2d352i3g23382g353e373h3m2631292c38342b282k2d1g3n3g312a3q2m1f3125363m2p353j2p2m381h1b_2j1k34241h1l3l2j222b39371l1j3c2k1o1l1m2l1m2h1t1t
p118
sVsex
p119
Vm
p120
sVrate
p121
V3
p122
sVnum_positive_votes
p123
V4
p124
sVnum_votes
p125
V5
p126
sVcountry
p127
VFrance
p128
sVid
p129
g62
sa(dp130
Vusername
p131
Vjeronmjensen
p132
sVhits
p133
V155
p134
sVcode
p135
Ven
p136
sVlangname
p137
VEnglish
p138
sVaddtime
p139
V2009-08-17 19:24:29
p140
sVpathogg
p141
g64
sVpathmp3
p142
Vhttp://apifree.forvo.com/audio/322k382o1l213q31342n2b2g3g272k2c2d2m2a3j212j311k3i2f2n2q3o382n2k2c2f1n2e392j3l2o243h1b3m2n2c1k2m3f2i2h3q293f22392o1g333g35373n1i_3h1l2d1b1l2l351h3f2n1o31243d3k3n32292g1i272h1t1t
p143
sVsex
p144
Vm
p145
sVrate
p146
V1
p147
sVnum_positive_votes
p148
V1
p149
sVnum_votes
p150
V1
p151
sVcountry
p152
VUnited States
p153
sVid
p154
g65
sa(dp155
Vusername
p156
Vkevin98230
p157
sVhits
p158
NsVcode
p159
Ven
p160
sVlangname
p161
VEnglish
p162
sVaddtime
p163
V2010-05-11 19:17:00
p164
sVpathogg
p165
g67
sVpathmp3
p166
Vhttp://apifree.forvo.com/audio/2g343g3h2j1k3a2i322m2m2a3o381f3g2j3n1h1k3p2i362j38362i3a1f3q2e1l2h2f341k2g1l2o2m3d3b2i2e2f2a2j3i1o313f352n2e2534351j3a2h391l2p2j_2d2a3o213o3l1b3j39213g3b1g2n363q3k1h39292i371t1t
p167
sVsex
p168
Vm
p169
sVrate
p170
V1
p171
sVnum_positive_votes
p172
V1
p173
sVnum_votes
p174
V1
p175
sVcountry
p176
VUnited Kingdom
p177
sVid
p178
g68
sa(dp179
Vusername
p180
VJuliusBeezer
p181
sVhits
p182
V165
p183
sVcode
p184
Ven
p185
sVlangname
p186
VEnglish
p187
sVaddtime
p188
V2009-07-18 12:55:09
p189
sVpathogg
p190
g70
sVpathmp3
p191
Vhttp://apifree.forvo.com/audio/3n372a2126352h1m351o3e2n32391n2l3o3n2q2334282d3i3g2e1i2f2c3c28282b321f272b313j1m3935263l282b2l3636233p2h3h1h393k2g3139351j2f2f2a_1m3a383f3l373a2b353b24313q32362h312f2m3f333n1t1t
p192
sVsex
p193
Vm
p194
sVrate
p195
V0
p196
sVnum_positive_votes
p197
I0
sVnum_votes
p198
V0
p199
sVcountry
p200
VUnited Kingdom
p201
sVid
p202
g71
sa(dp203
Vusername
p204
VBenladen
p205
sVhits
p206
V85
p207
sVcode
p208
Ven
p209
sVlangname
p210
VEnglish
p211
sVaddtime
p212
V2009-09-12 02:51:53
p213
sVpathogg
p214
g73
sVpathmp3
p215
Vhttp://apifree.forvo.com/audio/2o3m3n2o1n27273p2b3j3b1o2c1p222d2p1l2n1g2f1j3f242i1l3m333i2h2924212j2h2a262a1i231b3n3e1h2o372g1i321f2c2j38272k3a241m373n3n3a2h3m_242p363h2f2a3l3p3q1b233h22272q3g2b2q393n2n211t1t
p216
sVsex
p217
Vm
p218
sVrate
p219
V-1
p220
sVnum_positive_votes
p221
I0
sVnum_votes
p222
V1
p223
sVcountry
p224
VUnited States
p225
sVid
p226
g74
sassbsVdirges
p227
(iforvo
ForvoResponse
p228
(dp229
S'num_recordings'
p230
I0
sS'recordings'
p231
(lp232
sS'word'
p233
g227
sS'json'
p234
(dp235
Vattributes
p236
(dp237
Vtotal
p238
I0
ssVitems
p239
(lp240
ssbsVher 
p241
(iforvo
ForvoResponse
p242
(dp243
g4
I2
sg5
(lp244
(dp245
g19
Vhttp://apifree.forvo.com/audio/3l211i1k372m213i3e2c2g2d2o1p3o3f39212i2m3f1k3m1k1o1l3q3a24372123242p3f343g3h1i3c371k3a3m223j2d2k2o253e1f313m3m2h33372d241m3f2o2k3l1l1i3p393i331b281j3g2a1m2p2e1l353l263b3m211t1t_2g2p2g1i1f2g1j251f2a2f3h382c311p3h231j2g1j3n1t1t
p246
sg21
V114257
p247
sa(dp248
g19
Vhttp://apifree.forvo.com/audio/1m3o2d2b2e371b3k2o232i3n3j2n2i273i2a262b333q1i1g2m2724351f312c3n3c3f273e2q2h2531222i342625271n2m3b2m3o1m22311j3a252d351f3h3h293o223h393k2b3e1g391n3n3338243i322j2627371i2n211t1t_372k3q1l2i3m1h1h2k3n221i392h2g391j2o1g3i29211t1t
p249
sg21
V184614
p250
sasg7
(dp251
Vattributes
p252
(dp253
Vtotal
p254
I2
ssVitems
p255
(lp256
(dp257
Vusername
p258
Vguspolly
p259
sVhits
p260
V272
p261
sVcode
p262
Ven
p263
sVlangname
p264
VEnglish
p265
sVaddtime
p266
V2009-01-28 00:58:41
p267
sVpathogg
p268
g246
sVpathmp3
p269
Vhttp://apifree.forvo.com/audio/2o273m1f1l1k333c1p1i3c2k1o3l3f3a3m2m253h3e212l2g2c1b2c3e373p1n1l2b3o1b342q1f333k25262g1h363h3g2m3l293p3a37281b2i2q3d3e2e292e1g1k3m213m2i352k2h3123211o3l343p3e2l362i1b2q38371t1t_28352c2a1m3d3q3h3m3g2h1f2i1f1n243i1b2q232h211t1t
p270
sVsex
p271
Vm
p272
sVrate
p273
V2
p274
sVnum_positive_votes
p275
V2
p276
sVnum_votes
p277
V2
p278
sVcountry
p279
VUnited States
p280
sVid
p281
g247
sa(dp282
Vusername
p283
Vpaulzag
p284
sVhits
p285
V95
p286
sVcode
p287
Ven
p288
sVlangname
p289
VEnglish
p290
sVaddtime
p291
V2009-05-13 13:01:59
p292
sVpathogg
p293
g249
sVpathmp3
p294
Vhttp://apifree.forvo.com/audio/393e2i2q2e2j2j2l222i1i2n3j3p3m3l3b312539271f2k2g1o3b1o211b222j332f362m1h29272534373n1n2631381j3p3h3l1i1b2m1b3m2q1b223h2c2p241n2133271k341l1p272i2q2m1p2o2g3j3g322d1j1b233a2h1t1t_1h2g1h2h1o1p1p3j2b3m2k1b2g3a2q3h1f351h3h2f371t1t
p295
sVsex
p296
Vm
p297
sVrate
p298
V0
p299
sVnum_positive_votes
p300
I0
sVnum_votes
p301
V0
p302
sVcountry
p303
VAustralia
p304
sVid
p305
g250
sassbsVbible 
p306
(iforvo
ForvoResponse
p307
(dp308
g4
I1
sg5
(lp309
(dp310
g19
Vhttp://apifree.forvo.com/audio/1h2m3j2p2n2b37351b363h3e3k2g3q3q1b3a3l2229331p2q3p1o3j1j1l3o2n2c2o29392c2a1b2c372e2a223l3b3f1k3o1m1l332f1i3q3h3m2f2e332h2g312931_1h3h1f2i1b3b3l2f1k2j342k32312o34263h2h1m1b371t1t
p311
sg21
V3013
p312
sasg7
(dp313
Vattributes
p314
(dp315
Vtotal
p316
I1
ssVitems
p317
(lp318
(dp319
Vusername
p320
Vsugardaddy
p321
sVhits
p322
V252
p323
sVcode
p324
Ven
p325
sVlangname
p326
VEnglish
p327
sVaddtime
p328
V2008-04-04 20:30:13
p329
sVpathogg
p330
g311
sVpathmp3
p331
Vhttp://apifree.forvo.com/audio/1n372m3d27383d3m3d333c2a2e2l1n1h362d212m1l2o1k3f2m1h1k37223g363q2m3d2n2h343a1h2m1j1j3a23223q2b1j2n35342c25232n2g293c3a2m3d1k3f26_3c1p3a32383q1g3g3b3i243e233g3b1b392n3p241i3n1t1t
p332
sVsex
p333
Vm
p334
sVrate
p335
V3
p336
sVnum_positive_votes
p337
V3
p338
sVnum_votes
p339
V3
p340
sVcountry
p341
VUnited States
p342
sVid
p343
g312
sassbsVlong
p344
(iforvo
ForvoResponse
p345
(dp346
S'num_recordings'
p347
I2
sS'recordings'
p348
(lp349
(dp350
S'ogg'
p351
Vhttp://apifree.forvo.com/audio/233c2b3n3g2h3b2d342l38263k2b2l1b2b343o2j3g331k3q1j351m3a2f3c2k1i1k3a372d322b362j233d2p2p361h3o2f261j1p25291l38271i242o2d3f1l36213q253l221k1l3m2j3f3i2j1h3g3f381p352e2c353k3n1t1t_211g242n1h2m1h3c252q2q2o2c292o3n222q3i2h2d3n1t1t
p352
sS'id'
p353
V98046
p354
sa(dp355
g351
Vhttp://apifree.forvo.com/audio/2d2h2h1p2n2d22373o3g393j333f393a1f351f271g3l2g3c1p3l323g3b342h1n29272i291p243q2n2m3n2p2b1b3j1l2839373q333d31211g1h1l3728272b3j3i292d3b1b1b3l371b2o352f3n3b1h1p1m2d1i2f3f353n1t1t_273c1k1g341h3i3q3f292j2m2f1j2g1b1k3b2q1l1o2h1t1t
p356
sg353
V439975
p357
sasS'word'
p358
g344
sS'json'
p359
(dp360
Vattributes
p361
(dp362
Vtotal
p363
I2
ssVitems
p364
(lp365
(dp366
Vusername
p367
Vgeneralbelly
p368
sVhits
p369
V216
p370
sVcode
p371
Ven
p372
sVlangname
p373
VEnglish
p374
sVaddtime
p375
V2009-01-10 16:30:41
p376
sVpathogg
p377
g352
sVpathmp3
p378
Vhttp://apifree.forvo.com/audio/362k2f263j3523353q23372p373m3h3m2h3p1k1g231n1h1k3p373j2e2g1k3l3l3h3j262o3p241g2o3f251n1n37221f2c2739373m2i391h3j253a2a2e322f253c1l232q2k2i1g1m2a3p1b3b1n3j3o1m3b3m2223231i3n1t1t_28381g233p1k1j38313b3g2a232h2d1o351b2o2c2c2h1t1t
p379
sVsex
p380
Vm
p381
sVrate
p382
V0
p383
sVnum_positive_votes
p384
I0
sVnum_votes
p385
V0
p386
sVcountry
p387
VIreland
p388
sVid
p389
g354
sa(dp390
Vusername
p391
Vkurtywurty85
p392
sVhits
p393
V9
p394
sVcode
p395
Ven
p396
sVlangname
p397
VEnglish
p398
sVaddtime
p399
V2010-01-21 02:22:40
p400
sVpathogg
p401
g356
sVpathmp3
p402
Vhttp://apifree.forvo.com/audio/1i3e2l3q3h3i2j1i3i2k332n3k3g1n2j2l332d1f2p272m22343o3l1h3q3k251g38322i321k1n2k3p2q2a3o1n3p1l3m3b2f3j372e3i3c2d232f2q1k2n243e2i2o1g381n232n2g251b2g2c3j3b2n2q1i3o2l2n3e2m3l3n1t1t_2h2e1g3724321o23231f2a1g2b29373h1j3e1o3d3f371t1t
p403
sVsex
p404
Vf
p405
sVrate
p406
V0
p407
sVnum_positive_votes
p408
I0
sVnum_votes
p409
V0
p410
sVcountry
p411
VUnited Kingdom
p412
sVid
p413
g357
sassbsVA 
p414
(iforvo
ForvoResponse
p415
(dp416
S'num_recordings'
p417
I9
sS'recordings'
p418
(lp419
(dp420
S'ogg'
p421
Vhttp://apifree.forvo.com/audio/263j2i1i232j3b232o373c362e3m3j2f223a291b232836272i1m1j3o1b3m1i2b1p3g272p292o3h231p2a2e2f2g1j2g342c233l1n1m393a3d2q22272h3o2g251j2n3q212n1l2333242925241f261f332p2b1f2f351g371t1t_2n2p3n2k1n3c1g2d2k3n1l2a2e23223c383l391g362h1t1t
p422
sS'id'
p423
V130097
p424
sa(dp425
g421
Vhttp://apifree.forvo.com/audio/1m3f3g1f231j1b2o393i3q39222f223o3d313p2d311f322q33313j281n3c2k2e26293n2q2h1n3g3f273b2j1p1p3b3a2i2o1l263p391h3i341j3o2n353f1b3l32_342p271o3d39373n383a3a2j353l3a242d2c2f393p371t1t
p426
sg423
V55791
p427
sa(dp428
g421
Vhttp://apifree.forvo.com/audio/3q3l1m3g3m2i2k1o213h3e1m2h3f1i3n2c1o2q3o1m373d3a3d2e362e2k373k2n1b2m1i3m3p1o2k23293j1g2a1p382l3f3k3d3n2927341b253l223m2o3223333a3n3k2d2k26312j3j1m261h1n213o3b2k2c1j3f2p273n1t1t_2e23313b233i21392k222o1l28291j212j222g2o38211t1t
p429
sg423
V171189
p430
sa(dp431
g421
Vhttp://apifree.forvo.com/audio/2p1p281f24343728282m261p321h341m3c2n3k2c3g31283l2o283l36343m362f3n1o3q2h2o1j2q223i272o1m392m3k2j1g3j3h1k2h2o1l2j2e2f3i3p2d321h36_2j2m1i3q1p2j3d2d2l221f322c3428262d3i2l1j33211t1t
p432
sg423
V52884
p433
sa(dp434
g421
Vhttp://apifree.forvo.com/audio/1h372m1h3q2l37382k3d321p212b232332322f313e353d2a2721283b3h313a1j313k342a1f1i1l223m2q2f1l263l1n1i2i2a2k251b343a3536293j3b2j3j212a_283c23311o372p1o2g3o212k3j321n3q1h2a253824371t1t
p435
sg423
V57391
p436
sa(dp437
g421
Vhttp://apifree.forvo.com/audio/3d2p2f3e3c2f2c1i2h2p362a1f3e3n322c312b1i362i3m2o2f1m272q1n2q3m2m1l1b37211j1m3f262h3k243f3d3o262k2g37352p223k3q3f26372c371l332a3n32383m361b1j1j371j283q27362h311b1f1j1l2k2h2h1t1t_3n2f2f1l223j2m3f311p26382c3g262i271p1b2i2a3n1t1t
p438
sg423
V222570
p439
sa(dp440
g421
Vhttp://apifree.forvo.com/audio/3j1i242a273d352n2q1l36211p2g3q3l2f1p23292b1g1g1p3n3m3q3q3c2n273l1m2k2l353f2n1k27373c2j2n3c251j2d36263c1m2k1m1g21352g3q1m3h2o3l3c21372g2j2521231o1o3j321h2q1g3q3k35321p3g3c371t1t_3k1m2i2g37352e3i3o3k3p3c2o3e242j1b1g2a213h2h1t1t
p441
sg423
V587630
p442
sa(dp443
g421
Vhttp://apifree.forvo.com/audio/2j251p1p2h222d1k212a1f26262j3q2m1m2p2f2e381f3l2i1h3g2o1g3c1o2k2m263d381o3h1p2i3n352m1k393b2p2d341o2i1h37373o3d2b1g3a261h34333j2g_1i232l2f2a2n3o3f1h2f3h25312j2f3d3n3j2h1h1n3n1t1t
p444
sg423
V21219
p445
sa(dp446
g421
Vhttp://apifree.forvo.com/audio/3m3b223m253a1k2m3o2k1g3j3d1m1p2j2p1g3634271m2k322k1h3g3i1g3h2l2136262o2j3k2g1h1b22342f3g212l3g2f3e2k271m2m3k343h38391p2o1n383o281m2k2l1i393g2e2g212p2g3o232l221o2i351l2b343n1t1t_2l3m3p2i1i3p2e3j3q2g1j1b2p3p372l1j3i1n3m2e3n1t1t
p447
sg423
V372813
p448
sasS'json'
p449
(dp450
Vattributes
p451
(dp452
Vtotal
p453
I9
ssVitems
p454
(lp455
(dp456
Vusername
p457
Vfast46
p458
sVhits
p459
V723
p460
sVcode
p461
Ven
p462
sVlangname
p463
VEnglish
p464
sVaddtime
p465
V2009-02-21 23:29:42
p466
sVpathogg
p467
g422
sVpathmp3
p468
Vhttp://apifree.forvo.com/audio/242j2j263l2e252j3d2a2p2g232h312h2j323k3f3q3n1b1m3o3335211b2b3f1i1b282f3o3g2k1f3m1m1j3n3q312m352n1g232n3l2e1p1f2p3c1j3o2h3a2k1p1g2f222j3f3o213a3m21333f3k3m3k2h1l3m24363d3p211t1t_3b3e3b3f3k2d2d2m3b3e2j2n3j3m2o1b1g2e1f2731371t1t
p469
sVsex
p470
Vf
p471
sVrate
p472
V4
p473
sVnum_positive_votes
p474
V4
p475
sVnum_votes
p476
V4
p477
sVcountry
p478
VUnited States
p479
sVid
p480
g424
sa(dp481
Vusername
p482
Vcitizenchu
p483
sVhits
p484
V265
p485
sVcode
p486
Ven
p487
sVlangname
p488
VEnglish
p489
sVaddtime
p490
V2008-11-09 07:42:07
p491
sVpathogg
p492
g426
sVpathmp3
p493
Vhttp://apifree.forvo.com/audio/2g3j221j3c1l231f3k3d3p21221p2b1n3p2n3a2o3d1g363e221k1l333p362o2f2n1g252n23313e2d1l3m2o3a222n292a2o242a1p26392m311n1o2g2h282l273e_2c323b2m3i393132383e282o332e1l391i2j3k3j1i2h1t1t
p494
sVsex
p495
Vf
p496
sVrate
p497
V3
p498
sVnum_positive_votes
p499
V3
p500
sVnum_votes
p501
V3
p502
sVcountry
p503
VUnited States
p504
sVid
p505
g427
sa(dp506
Vusername
p507
Veris
p508
sVhits
p509
V131
p510
sVcode
p511
Ven
p512
sVlangname
p513
VEnglish
p514
sVaddtime
p515
V2009-05-06 03:03:05
p516
sVpathogg
p517
g429
sVpathmp3
p518
Vhttp://apifree.forvo.com/audio/382f2h232p2n233g2c1f263h2n3l3k1b3g322q253q1n2c3a1m1k3b3c382b1i2d263h38393o1p392g3i3p24221n2j242l3h3k2q2e1f3k352n333m2k2g1m3d3o3m2h1h332a3l221l2q393h322j3o2239292n2e333k2i211t1t_1k392g37261f2l3d212l361b2q321b2e3a2l1b3k2b371t1t
p519
sVsex
p520
Vf
p521
sVrate
p522
V3
p523
sVnum_positive_votes
p524
V3
p525
sVnum_votes
p526
V3
p527
sVcountry
p528
VUnited States
p529
sVid
p530
g430
sa(dp531
Vusername
p532
Vmooncow
p533
sVhits
p534
V364
p535
sVcode
p536
Ven
p537
sVlangname
p538
VEnglish
p539
sVaddtime
p540
V2008-11-02 05:05:16
p541
sVpathogg
p542
g432
sVpathmp3
p543
Vhttp://apifree.forvo.com/audio/3k3i1g1b382i1j1m1l251g1h333h222d3m383h3i3g3j2c262c2c3i372q1l2f1b2a1l2j3f383a3o3k3j3l3d3h3l2q3p393g1l281o2b2b2i322432282k262d2838_322j2j2p1l1g261g223p3c1p1k23331i1k2d261h2l3n1t1t
p544
sVsex
p545
Vm
p546
sVrate
p547
V3
p548
sVnum_positive_votes
p549
V3
p550
sVnum_votes
p551
V3
p552
sVcountry
p553
VUnited Kingdom
p554
sVid
p555
g433
sa(dp556
Vusername
p557
VLiam
p558
sVhits
p559
V188
p560
sVcode
p561
Ven
p562
sVlangname
p563
VEnglish
p564
sVaddtime
p565
V2008-11-11 17:23:54
p566
sVpathogg
p567
g435
sVpathmp3
p568
Vhttp://apifree.forvo.com/audio/2c3c3m321k2e1l3l2h373f3a2k3j1f22393j26341m2o2f253j1i392m283l1p1o2d24213c2q3424233a1p2c3c2q3o2i33382m3a1f1m341h3g273b1b3m28242a1n_2o3d3i2m1n2g3p3o2m222i3n1j373o282p233j362b371t1t
p569
sVsex
p570
Vm
p571
sVrate
p572
V1
p573
sVnum_positive_votes
p574
V2
p575
sVnum_votes
p576
V3
p577
sVcountry
p578
VUnited Kingdom
p579
sVid
p580
g436
sa(dp581
Vusername
p582
VTopQuark
p583
sVhits
p584
V97
p585
sVcode
p586
Ven
p587
sVlangname
p588
VEnglish
p589
sVaddtime
p590
V2009-06-10 01:26:42
p591
sVpathogg
p592
g438
sVpathmp3
p593
Vhttp://apifree.forvo.com/audio/32283f3i3m383o1k3o3i1k1i3i323p3a3f311k2f3k2c3c281o293l3f3f3c2h332f3d3j3c2e3m3g23371b3m3g2e1h3p2f2n322e2m323l3j283c3m2i3p3p373q2p3b3c372e3p3m2q233429363k3g312q1n1b311h1m36211t1t_233721271b3h23312a2c2f34333c1m29212o1p1n3l2h1t1t
p594
sVsex
p595
Vm
p596
sVrate
p597
V1
p598
sVnum_positive_votes
p599
V1
p600
sVnum_votes
p601
V1
p602
sVcountry
p603
VUnited Kingdom
p604
sVid
p605
g439
sa(dp606
Vusername
p607
VFrazJam
p608
sVhits
p609
NsVcode
p610
Ven
p611
sVlangname
p612
VEnglish
p613
sVaddtime
p614
V2010-05-18 21:17:58
p615
sVpathogg
p616
g441
sVpathmp3
p617
Vhttp://apifree.forvo.com/audio/2f3q212d1f2d1f363o1l2n1m332n263i2939371f383c3b2l2c342f3p321l233a28242j3e1i2f3q2n341g2i1k3b2a233h3m2l2439353b2138373l2p332e1k212k2o1n283f2n2j323a1f3k3m3l3n322n3f1j3d3n1p3j211t1t_2a3d212p1f3c2l2p1p1h3g1i2o2k2o233m3j2a3a2e371t1t
p618
sVsex
p619
Vm
p620
sVrate
p621
V1
p622
sVnum_positive_votes
p623
V1
p624
sVnum_votes
p625
V1
p626
sVcountry
p627
VUnited Kingdom
p628
sVid
p629
g442
sa(dp630
Vusername
p631
Vlightinthedarkness
p632
sVhits
p633
V269
p634
sVcode
p635
Ven
p636
sVlangname
p637
VEnglish
p638
sVaddtime
p639
V2008-06-15 22:06:40
p640
sVpathogg
p641
g444
sVpathmp3
p642
Vhttp://apifree.forvo.com/audio/313m2f2p3e361p2827382o2m331j1k333c2h1p3e38271j3c2h373m1l2m3g2p2h3i3h352b371o1f2d2b2p3i23241g2i2j1l2h2l272o3e3p1i361k2c1b2l1n3c35_3p2g2b3l283j3o2f223j1j1j1n2e2j34343e343f3j3n1t1t
p643
sVsex
p644
Vf
p645
sVrate
p646
V1
p647
sVnum_positive_votes
p648
V1
p649
sVnum_votes
p650
V1
p651
sVcountry
p652
VCanada
p653
sVid
p654
g445
sa(dp655
Vusername
p656
Vjoshua99
p657
sVhits
p658
V43
p659
sVcode
p660
Ven
p661
sVlangname
p662
VEnglish
p663
sVaddtime
p664
V2009-11-17 21:15:59
p665
sVpathogg
p666
g447
sVpathmp3
p667
Vhttp://apifree.forvo.com/audio/3i281k3e3e2b331m3a3p341j2g291o2m2o341h2m2b292n233q3j3b37361p262b2j2l2m2d1p23253l2e383e233f38223f2d232f232p2q343b3d1h2d2l3c3l32241h3m3b1k212129262i1g3d2n1f24252c39323b2a1p371t1t_1b393j22231i292e2n1g2i21242k1l3p262m233334371t1t
p668
sVsex
p669
Vm
p670
sVrate
p671
V-1
p672
sVnum_positive_votes
p673
I0
sVnum_votes
p674
V1
p675
sVcountry
p676
VChina
p677
sVid
p678
g448
sassbsVmaybe
p679
(iforvo
ForvoResponse
p680
(dp681
g230
I5
sg231
(lp682
(dp683
S'ogg'
p684
Vhttp://apifree.forvo.com/audio/2o3i3o3k3e1o3e39333o2g3k2p2l2a3g3c372k1j2m2k2b3a1o34212m1h2n3b262q2c263n333f1o2336333o2f272k2k392k1m1p3e312q1o241i3l3l2d372n3n391f2b261o243a2g3j3f253j2b3g3c1l3h391b3d2g3i3n1t1t_331f3h353c2f1f3e1g29243d1n342b3k1p2p2e3l3b211t1t
p685
sS'id'
p686
V209510
p687
sa(dp688
g684
Vhttp://apifree.forvo.com/audio/3f3o341l362g2i1l25351g1h3e2f342d1o343b283j3a3g223n2p2f2c3c381j3m253o2l3o1o2a222h3j3f2d1p1l383q2n2l1n2m2m23323o341b211b2o3m2p3828373f233i1g311k2d1m3436241f351f292k2i2l3137371t1t_2k321p3e393b3k3i1m3i2m1n211b2k1m282g2l3f322h1t1t
p689
sg686
V328427
p690
sa(dp691
g684
Vhttp://apifree.forvo.com/audio/2d1p2c2b29393g221m3n232332383i353b333b1f38271m3c342n26362m2725373a1f391k3e33333g1l2g242d1n1o2l3l2l3f22273g2e2j38393l3g3a393n3m1i2f3k2o1o3d1b352q361f2e2i3h1i2h2p1o1n2d3p38371t1t_233q34371f3l3d373c3c1l2m2b1j2b353i1i1b1k3k211t1t
p692
sg686
V595785
p693
sa(dp694
g684
Vhttp://apifree.forvo.com/audio/21392e3k3f3i1f371k2p251j351h3g2621262g21391o3d1i3d2c2k3f1g2a2f211l263n1k1n3q2b2j3q2n3l2f2j3d3c3c292n2n283k2m3h3a1i252j1k2e3b262i_2m372636323m2l3f24362l1b32261f35263q2e3j35211t1t
p695
sg686
V53000
p696
sa(dp697
g684
Vhttp://apifree.forvo.com/audio/1l26392q2q1k373d3h2e3k1j1h352j3435221h2h1i1b3l1l3d1l1b3a3g3m3h312o2e1o1h2j3f352d3i3k1o2b351n3h2g22232i1o242l36283b2l3m3g2k3l312i292g2e3c291p282p242n3e3p3j352f333o2c281h3j3n1t1t_22362j2l3m3g1m2k2o391b342e392b3d1p3i2i28263n1t1t
p698
sg686
V66776
p699
sasg233
g679
sg234
(dp700
Vattributes
p701
(dp702
Vtotal
p703
I5
ssVitems
p704
(lp705
(dp706
Vusername
p707
Valison
p708
sVhits
p709
V88
p710
sVcode
p711
Ven
p712
sVlangname
p713
VEnglish
p714
sVaddtime
p715
V2009-05-30 16:55:36
p716
sVnum_votes
p717
V0
p718
sVpathogg
p719
g685
sVpathmp3
p720
Vhttp://apifree.forvo.com/audio/3l1l36371i1j221j1p332m362i22271n293i3e321j312g2o1l3h311o282b2b2j3b383n1b2p2i21382i2o3c3p1h1l3q392f24273j3f283i3q3a1l3m241p1k2n3c3l343d1h2a1n3i3l2k1o2q2o3o1n3i323i3c3a1k233n1t1t_2j2q2p353j241f1n2j1p1n3q3c312f342l3h37391j371t1t
p721
sVsex
p722
Vf
p723
sVrate
p724
V0
p725
sVnum_positive_votes
p726
I0
sVcountry
p727
VAustralia
p728
sVid
p729
g687
sa(dp730
Vusername
p731
VShotgunLobotomy
p732
sVhits
p733
V38
p734
sVcode
p735
Ven
p736
sVlangname
p737
VEnglish
p738
sVaddtime
p739
V2009-09-30 11:31:37
p740
sVnum_votes
p741
V0
p742
sVpathogg
p743
g689
sVpathmp3
p744
Vhttp://apifree.forvo.com/audio/1p2a242d2d3f2c3c2o2d3p2l2j283935231i3e3k3l352p2b3p1j2i3p1p3o3332251k2g372k1b292a3f21321n3o212l3l3n2o3g2l2b2222272i2d2m2536323i31322n2o1g3d262a2j3o3o1b2q3f241o3428283i2c2m211t1t_212b2g1b323c3g3e2l2b373f2m263o292p2d313a3n2h1t1t
p745
sVsex
p746
Vm
p747
sVrate
p748
V0
p749
sVnum_positive_votes
p750
I0
sVcountry
p751
VUnited States
p752
sVid
p753
g690
sa(dp754
Vusername
p755
Vfloridagirl
p756
sVhits
p757
NsVcode
p758
Ven
p759
sVlangname
p760
VEnglish
p761
sVaddtime
p762
V2010-05-24 02:43:16
p763
sVnum_votes
p764
V0
p765
sVpathogg
p766
g692
sVpathmp3
p767
Vhttp://apifree.forvo.com/audio/3i332p2i3h2q2o3n273b1j2a2h3f1p1j3o2d26213g3k242d272c31381f2b2j3n2o222p3j3d2q262h35233f3f273q1o2i3q3d2q373n3q362d343f2o1j291g3g2l3l2n2k22233j292l2n1k1i271g3a1m3e3c341m1n2k3n1t1t_2l1o272c1l2d283e1l262b2e362h2c3a2m311i2724211t1t
p768
sVsex
p769
Vf
p770
sVrate
p771
V0
p772
sVnum_positive_votes
p773
I0
sVcountry
p774
VUnited States
p775
sVid
p776
g693
sa(dp777
Vusername
p778
Vmooncow
p779
sVhits
p780
V73
p781
sVcode
p782
Ven
p783
sVlangname
p784
VEnglish
p785
sVaddtime
p786
V2008-11-02 14:12:28
p787
sVnum_votes
p788
V0
p789
sVpathogg
p790
g695
sVpathmp3
p791
Vhttp://apifree.forvo.com/audio/39291i2o393p1l2f3n3m392j1k1f3j1i1g3k1l3n3a3k3f313o3p2m2n1l3e341f1l1k1g1n1f283b2o24293f222n392h2f1m21313k2o39333b2n233l381h2p3p3p_371f3l1b3q3h3a1n2h3j2d1m2n3k1j3d3p1i243b1l3n1t1t
p792
sVsex
p793
Vm
p794
sVrate
p795
V0
p796
sVnum_positive_votes
p797
I0
sVcountry
p798
VUnited Kingdom
p799
sVid
p800
g696
sa(dp801
Vusername
p802
VLinkeyEh
p803
sVhits
p804
V71
p805
sVcode
p806
Ven
p807
sVlangname
p808
VEnglish
p809
sVaddtime
p810
V2008-11-22 22:51:47
p811
sVnum_votes
p812
V0
p813
sVpathogg
p814
g698
sVpathmp3
p815
Vhttp://apifree.forvo.com/audio/3c3i1i353i2o35223i341j3h262k31293b2d3j2i2i392o2d2i1o382m2e1k3b3j333i2i35392a2n1o1h3o3h3k293e2o1m1m2e2a2c1l223l2327232m2b372k24231l221b252c2l2k1g312l1b1n2b3p2e2p2d3l3a3i2f2h1t1t_3e222f3h2a291b3k2q321o2631281h212c2j2e382i2h1t1t
p816
sVsex
p817
Vf
p818
sVrate
p819
V0
p820
sVnum_positive_votes
p821
I0
sVcountry
p822
VCanada
p823
sVid
p824
g699
sassbsVup 
p825
(iforvo
ForvoResponse
p826
(dp827
g4
I1
sg5
(lp828
(dp829
g19
Vhttp://apifree.forvo.com/audio/1n2h1i3g3f262o2a2l3d3f391l3e2d2a3l3m3h1k1g1i3f38283c3d1h2a2g1p3h2c1j1l2k3c3n24231h391h3f293a2e313p3h2h2e3f2h2n381n1n1p2c1h29212g_3k2b1n333c3j1k3b1b1n2q2p2n223234251i3q2c3m3n1t1t
p830
sg21
V163855
p831
sasg7
(dp832
Vattributes
p833
(dp834
Vtotal
p835
I1
ssVitems
p836
(lp837
(dp838
Vusername
p839
Vpalashdave
p840
sVhits
p841
V226
p842
sVcode
p843
Ven
p844
sVlangname
p845
VEnglish
p846
sVaddtime
p847
V2009-05-02 01:45:56
p848
sVpathogg
p849
g830
sVpathmp3
p850
Vhttp://apifree.forvo.com/audio/1k3j2k3c1g2j2h1n3g2c2l343n2n1l2l2k223a1h3q3h3q3i2d1m243e2f3a2d2c1n2f2o2j1k2b36232m393d1j321i2k3d3q2o253f3l293i293f3e282b3o3j2o2o_2i332f2f2a2c1f1o33341g3n3h1b3h3j1i28333m28371t1t
p851
sVsex
p852
Vm
p853
sVrate
p854
V0
p855
sVnum_positive_votes
p856
I0
sVnum_votes
p857
V0
p858
sVcountry
p859
VUnited Kingdom
p860
sVid
p861
g831
sassbsVsmile
p862
(iforvo
ForvoResponse
p863
(dp864
g4
I3
sg5
(lp865
(dp866
g19
Vhttp://apifree.forvo.com/audio/2d342335233c2m323c2f1b2l2a3f1i1i2i342q1m1b2m322c212p221b1f343f281j2f373d2n3d3k1o2m2o1l1h331f39393m34383k2g3k3l2q2522313p263c372c2d1b1n3b3h2l272c1b22392l1l2c2o2d2a3k363f3j3n1t1t_2136252g322q373l3p2221223a2m33313h3m2q2o3i371t1t
p867
sg21
V161138
p868
sa(dp869
g19
Vhttp://apifree.forvo.com/audio/2l2g1f3a3k262b281j2n3o3o2f3g39342i2b2f362b2h392i3q3f373l2m2n2b3m1j3n3m3m2d3f2o2k3n3f2q323c373e323n35282529383a3q3p3l24313o2m37233k2c1n3p373j353l2n3a331g322e2a2m351o213d3b2h1t1t_2i3l2q3g2e2f2m1i2a283a341p2b1n2d1o3p261h1i2h1t1t
p870
sg21
V301452
p871
sa(dp872
g19
Vhttp://apifree.forvo.com/audio/261n3l333c2i392133273c3g2g2j3321232529341p1m3d312a3n2a2e1o2b1m2b1n2622251f1b3g34243m1g1m2a3d2g1i3g3q2a3a1p3b2j3g2p1m26363f3p1l1m_223g3n3n3m2m2m2a2m2326391j2g3m3g1f372p1m2d2h1t1t
p873
sg21
V68927
p874
sasg7
(dp875
Vattributes
p876
(dp877
Vtotal
p878
I3
ssVitems
p879
(lp880
(dp881
Vusername
p882
Vbrapbrap
p883
sVhits
p884
V293
p885
sVcode
p886
Ven
p887
sVlangname
p888
VEnglish
p889
sVaddtime
p890
V2009-04-30 07:49:18
p891
sVpathogg
p892
g867
sVpathmp3
p893
Vhttp://apifree.forvo.com/audio/1h1f2c332g1n3e2g3c2o1f2c1j252k231o312a3h3j1b2m3k1n2p1m3m1g1k2l2m3q2m2m22333m2o3m283626353g363f2n1n2l3j3q2j221h2g3g2o24373b2d3k242l3d1o2q2q1p273p2m22273j363d3g3e2i3l1i3525211t1t_1p3k3o3n2j241h2l1o372o2822292d3e2i2f3b243b371t1t
p894
sVsex
p895
Vf
p896
sVrate
p897
V3
p898
sVnum_positive_votes
p899
V3
p900
sVnum_votes
p901
V3
p902
sVcountry
p903
VUnited Kingdom
p904
sVid
p905
g868
sa(dp906
Vusername
p907
Vcarlosmurger
p908
sVhits
p909
V45
p910
sVcode
p911
Ven
p912
sVlangname
p913
VEnglish
p914
sVaddtime
p915
V2009-09-04 23:27:17
p916
sVpathogg
p917
g870
sVpathmp3
p918
Vhttp://apifree.forvo.com/audio/232q261h292l2q34372125213e2p2g251n2e321n1j3f3l2j2f222e3f1g3o2j1o2621232c3n2n1g2e3o362c291f1k38262p2e1h3i3o2l3o2p3p2e3n1m332g3m1j3i3b3l3e3731381b3i3p2m211l333h3c3e383m2c323n1t1t_343e1i223o3f313b2m3a1h3d213b3g382f3b2o3325371t1t
p919
sVsex
p920
Vm
p921
sVrate
p922
V0
p923
sVnum_positive_votes
p924
I0
sVnum_votes
p925
V0
p926
sVcountry
p927
VSpain
p928
sVid
p929
g871
sa(dp930
Vusername
p931
Vspidra
p932
sVhits
p933
V193
p934
sVcode
p935
Ven
p936
sVlangname
p937
VEnglish
p938
sVaddtime
p939
V2008-11-26 08:11:30
p940
sVpathogg
p941
g873
sVpathmp3
p942
Vhttp://apifree.forvo.com/audio/1b313a291p3m1k1k313h261p2m252m1b2k3e2a2g3b2a2j3p3j3h1b36232637342h1p2m1f2d2g332526243j3i1j2a3i361m3n32233j3i3k3g3p233o273n242p3m_25383d1m2e1m251p3k343h1h25292e1j3h29213k2i3n1t1t
p943
sVsex
p944
Vf
p945
sVrate
p946
V0
p947
sVnum_positive_votes
p948
I0
sVnum_votes
p949
V0
p950
sVcountry
p951
VUnited States
p952
sVid
p953
g874
sassbsVtime 
p954
(iforvo
ForvoResponse
p955
(dp956
g417
I3
sg418
(lp957
(dp958
g421
Vhttp://apifree.forvo.com/audio/372q353n353p3i1g3i212p2c2j1h281k293h1i343b33322f2e33383f1l382o3a222i2c3p3h2o3c1o382e3i3n2f361n2b1g1g2q1i1i2h341i23213b2e1h2q2j3o_2h1f3l2q3g2m1i1k2h1f253n262m1f342d2b2l3p252h1t1t
p959
sg423
V80777
p960
sa(dp961
g421
Vhttp://apifree.forvo.com/audio/2b3f1f2c1f311b3e3m253k2c2c3o1g3o2k272n2o1j36312j2l1l3g1n1l2d2p3k2f332n3c242d29213c1k2k29352q282b1i2d1k1f2j2d1g311i2g3p372i2b1f3a_331n3k1p3f3e3921233425392l291k3m281j3a2g2h2h1t1t
p962
sg423
V746813
p963
sa(dp964
g421
Vhttp://apifree.forvo.com/audio/2n3c3m36223a1p3c3p3p353a3q3f2q3j1p1n343q3i1f2a333k1n2b2m1p32253l31321g3c3k2m212k3m3f2c2a2o2p3o2m1g362h362o3p2b1i3l3f2p353k3p2n23_212d1g3o3h2m3c1h2c2c321n3h1m3n3g39263l312n211t1t
p965
sg423
V6854
p966
sasg449
(dp967
Vattributes
p968
(dp969
Vtotal
p970
I3
ssVitems
p971
(lp972
(dp973
Vusername
p974
Vfalconfling
p975
sVhits
p976
V282
p977
sVcode
p978
Ven
p979
sVlangname
p980
VEnglish
p981
sVaddtime
p982
V2008-12-15 17:29:34
p983
sVpathogg
p984
g959
sVpathmp3
p985
Vhttp://apifree.forvo.com/audio/3j2n2p3o3m39313j253p1i3i2c1k25323p3a2a22241i2j291k332e2m29263p293g321m3e3p1n2h2h2q3n29381g3829371o3m2o2q2p312j3a3f1k3m3a2e3k2a2o_2q37252h2g1k3c3n223e1h363f233p243c1p3j1j3e211t1t
p986
sVsex
p987
Vm
p988
sVrate
p989
V1
p990
sVnum_positive_votes
p991
V1
p992
sVnum_votes
p993
V1
p994
sVcountry
p995
VUnited States
p996
sVid
p997
g960
sa(dp998
Vusername
p999
VFiddlesticks
p1000
sVhits
p1001
NsVcode
p1002
Ven
p1003
sVlangname
p1004
VEnglish
p1005
sVaddtime
p1006
V2010-08-31 02:15:26
p1007
sVpathogg
p1008
g962
sVpathmp3
p1009
Vhttp://apifree.forvo.com/audio/2h3k3f1n272a1j3b3d2n1b3628323l2a3a353a363c3d1l2q333b3a2g3a2h3b3p341j2h3a2a291i27321k3k3o2k3a2f3e2p3i1o3g1g273l1o3p311m1l3i1k2j1k_2j233f2f2e3j292e2a2p2f233j1j3n262m2e3m2p1g211t1t
p1010
sVsex
p1011
Vm
p1012
sVrate
p1013
V0
p1014
sVnum_positive_votes
p1015
I0
sVnum_votes
p1016
V0
p1017
sVcountry
p1018
VCanada
p1019
sVid
p1020
g963
sa(dp1021
Vusername
p1022
Vbjhinton
p1023
sVhits
p1024
V204
p1025
sVcode
p1026
Ven
p1027
sVlangname
p1028
VEnglish
p1029
sVaddtime
p1030
V2008-04-11 21:08:05
p1031
sVpathogg
p1032
g965
sVpathmp3
p1033
Vhttp://apifree.forvo.com/audio/2h2c3336392c1m3a392p2o2d1b3l331f1b2k3o263o2m343n2h2e2128362f2m222q3n2m352n2g36283b3e2h2o3g292e2j232n2a3e1p341l2p1b1k3n1o3d2p333f_2g232b281b343c331m1m2b2q1j3e1g2m2n1o392o2m371t1t
p1034
sVsex
p1035
Vm
p1036
sVrate
p1037
V0
p1038
sVnum_positive_votes
p1039
I0
sVnum_votes
p1040
V0
p1041
sVcountry
p1042
VUnited States
p1043
sVid
p1044
g966
sassbsVhappy
p1045
(iforvo
ForvoResponse
p1046
(dp1047
g230
I6
sg231
(lp1048
(dp1049
g684
Vhttp://apifree.forvo.com/audio/282f2k2d1k3o273n2b2p3i3o2d262o253h3p1j271m251f1j342b2p1p2k2d3h2b3h393e282c332d1l3l1j3h2o2i2e2l3c3e1m2d1g2g272e2h3q3h2n272l2e2d3d_362e2a3c1m353l3q2j3d243k3c242f1k2m33363o2i3n1t1t
p1050
sg686
V595833
p1051
sa(dp1052
g684
Vhttp://apifree.forvo.com/audio/2o2c1j1f31342a313o2f3l2i3m24243n1f323g3l1f341m3f35341g2o3d3b3i3b2n252e2g32271f371i281p1o3e263e393p2a3q1j1l3d2n343i3d1l3l3n1i2h1m_3a2i3l393f2a1n2f2f3i2g39383d39233d2e2e2f1j371t1t
p1053
sg686
V2875
p1054
sa(dp1055
g684
Vhttp://apifree.forvo.com/audio/2p2728291l3g2k3b2j3h2c3d3h3a37361l1k2g1k2d213m3f1l3c3f1l1l252e3k242q3q1g2q3h2m1n283m2q2d1f2i2e3h1n2d1p2e281o361p33341i2b1g2f342f_3i2g3f252n1i1j3f3l2d3o2a1m2a272m22373f3k373n1t1t
p1056
sg686
V277710
p1057
sa(dp1058
g684
Vhttp://apifree.forvo.com/audio/3l352o3m3f3a342k3o3m2o31352i2g2l2d34271k232l2a2b3j3n3h332d263g223p273l373g28213m3j1k233m211j252n2h3j2d252o2a3i3i382d3m2g1m373o1p_2j3g2f35333l2n39322p3b1h382d1p3f2f3l322m3f3n1t1t
p1059
sg686
V577382
p1060
sa(dp1061
g684
Vhttp://apifree.forvo.com/audio/2g1k3d3p3k313k2b2m3o271p1o1f2n1n3l31252n2i223l2f2j1o361o2h3i33373c2q251l3b3m2p3d2j1n372h2j3l271b3h362m252k1f3k27222i1k3i3q3c2m1j_1m2m1n1l3b2i2i3d1o3h27212k3q2g1h273h1g3c3j2h1t1t
p1062
sg686
V252993
p1063
sa(dp1064
g684
Vhttp://apifree.forvo.com/audio/343l353e2236353g363q362l363k3h3e313o2l2n1m3q2p222m1f2q3e3a2g1b1b1i22363c262n2l1h2k1p3g2b2731263j1m1b322225361m331g3l1o1n3l391j3l_212f273k2f2g2q2f2g3d2l1m1h1j272o2m3p2a3b2p211t1t
p1065
sg686
V309698
p1066
sasg233
g1045
sg234
(dp1067
Vattributes
p1068
(dp1069
Vtotal
p1070
I6
ssVitems
p1071
(lp1072
(dp1073
Vusername
p1074
Vfloridagirl
p1075
sVhits
p1076
NsVcode
p1077
Ven
p1078
sVlangname
p1079
VEnglish
p1080
sVaddtime
p1081
V2010-05-24 03:02:17
p1082
sVnum_votes
p1083
V3
p1084
sVpathogg
p1085
g1050
sVpathmp3
p1086
Vhttp://apifree.forvo.com/audio/1p2l282m282o311j392i361f1g2o2b3k1b3c3i393o1b3428281m1o3l3i383j3j213i2d3o3d1o1o233c1f232k2l392m1g2l311i3h2l383g3j3q3g25382m2h2726_2e2j1h1j2d272j2l3j3o1f1k3j3f3o232f1p3d273b2h1t1t
p1087
sVsex
p1088
Vf
p1089
sVrate
p1090
V3
p1091
sVnum_positive_votes
p1092
V3
p1093
sVcountry
p1094
VUnited States
p1095
sVid
p1096
g1051
sa(dp1097
Vusername
p1098
VNells
p1099
sVhits
p1100
V976
p1101
sVcode
p1102
Ven
p1103
sVlangname
p1104
VEnglish
p1105
sVaddtime
p1106
V2008-04-04 17:50:58
p1107
sVnum_votes
p1108
V5
p1109
sVpathogg
p1110
g1053
sVpathmp3
p1111
Vhttp://apifree.forvo.com/audio/2n233e27352f381b363q2p2l2l241p34232l2m2a241h342c2q1n362g2d2g2f3i2i2k2e3i1i273p1l1m2l23342m3m3c3l343b3k3o1b2h1k2i1f3k3d1p2k233i1k_362p2o3j2e3b1b1b3m2i1p312b273j1m2c3i353k1m3n1t1t
p1112
sVsex
p1113
Vm
p1114
sVrate
p1115
V3
p1116
sVnum_positive_votes
p1117
V4
p1118
sVcountry
p1119
VFrance
p1120
sVid
p1121
g1054
sa(dp1122
Vusername
p1123
Vjeronmjensen
p1124
sVhits
p1125
V155
p1126
sVcode
p1127
Ven
p1128
sVlangname
p1129
VEnglish
p1130
sVaddtime
p1131
V2009-08-17 19:24:29
p1132
sVnum_votes
p1133
V1
p1134
sVpathogg
p1135
g1056
sVpathmp3
p1136
Vhttp://apifree.forvo.com/audio/1g3m3b352b3p3d3l1l2d2d253c2g253b3j2e33263i2f3f2k36283h3h3h3h3o3d221i241m3p1g3k1o2f233d362b3f1j2q283l362l323j3a2a3k3o282j342g3j3n_332m371h3b3k3h3m3g312e361l352h1f391n3q2k2l211t1t
p1137
sVsex
p1138
Vm
p1139
sVrate
p1140
V1
p1141
sVnum_positive_votes
p1142
V1
p1143
sVcountry
p1144
VUnited States
p1145
sVid
p1146
g1057
sa(dp1147
Vusername
p1148
Vkevin98230
p1149
sVhits
p1150
NsVcode
p1151
Ven
p1152
sVlangname
p1153
VEnglish
p1154
sVaddtime
p1155
V2010-05-11 19:17:00
p1156
sVnum_votes
p1157
V1
p1158
sVpathogg
p1159
g1059
sVpathmp3
p1160
Vhttp://apifree.forvo.com/audio/1l323c1m242p2f372e3n2i3d313o2q312j2o381h3q2l2o1g3i2n2m1o3j331i2c372629373m362k3l2n3e1j31222c2g1m362m212h1h382b2d23343h331p282j26_1j1o3k1i2o263b342a1o2q23343p2335263q3d1k1h3n1t1t
p1161
sVsex
p1162
Vm
p1163
sVrate
p1164
V1
p1165
sVnum_positive_votes
p1166
V1
p1167
sVcountry
p1168
VUnited Kingdom
p1169
sVid
p1170
g1060
sa(dp1171
Vusername
p1172
VJuliusBeezer
p1173
sVhits
p1174
V165
p1175
sVcode
p1176
Ven
p1177
sVlangname
p1178
VEnglish
p1179
sVaddtime
p1180
V2009-07-18 12:55:09
p1181
sVnum_votes
p1182
V0
p1183
sVpathogg
p1184
g1062
sVpathmp3
p1185
Vhttp://apifree.forvo.com/audio/2p2g211k29223f33362h1b1h283n2p3c2n1h2q1b2f271f35262c232k33313a372p1j212d2e272f1p3b1j1n3b1m2522373l3d2f1j2k252o3h3q1g2q3824292323_333q1n313q3c1g2g2m3n271g2f343e3k1p3d2c2d2m3n1t1t
p1186
sVsex
p1187
Vm
p1188
sVrate
p1189
V0
p1190
sVnum_positive_votes
p1191
I0
sVcountry
p1192
VUnited Kingdom
p1193
sVid
p1194
g1063
sa(dp1195
Vusername
p1196
VBenladen
p1197
sVhits
p1198
V85
p1199
sVcode
p1200
Ven
p1201
sVlangname
p1202
VEnglish
p1203
sVaddtime
p1204
V2009-09-12 02:51:53
p1205
sVnum_votes
p1206
V1
p1207
sVpathogg
p1208
g1065
sVpathmp3
p1209
Vhttp://apifree.forvo.com/audio/252i271b2d3p1i2j272e2b1h1b3p3c2p1b321f2n1o3i3m253j3o3n2n322p2k1m332h253a1m3f3d2h2c1m3n2d3c3l25262a3n2p273e383q383g323o2i1j1b3o2e_232c2l1m2m2l2c1m353e2f33313o3l323k3524213o3n1t1t
p1210
sVsex
p1211
Vm
p1212
sVrate
p1213
V-1
p1214
sVnum_positive_votes
p1215
I0
sVcountry
p1216
VUnited States
p1217
sVid
p1218
g1066
sassbsVbook 
p1219
(iforvo
ForvoResponse
p1220
(dp1221
g4
I5
sg5
(lp1222
(dp1223
g19
Vhttp://apifree.forvo.com/audio/32231i2b34393h38263d1b2e233b3k1i3q1b1o221m3a1b3g3f1o3l1b1f1o1n1h3g2g3p3d3i1i2j1n3m2b3l2f23352b3o1n3m2j3f1i1p2e3n211o2h253o2d2528_2423212l282k1o3q2j223n3i3m3k361g2i2j1n1p3h211t1t
p1224
sg21
V297780
p1225
sa(dp1226
g19
Vhttp://apifree.forvo.com/audio/3n3q2i1p3q221g252b3i2d1o3q282f2a2h2o2q1j34292o2c26262e3f3d353b3b323c2c3h282q3f1p3i3l1g2k1h1f3j2c3f353i3e1k2b2l282f3p1o3b2l1h3232_2p3e3i3425271m1p1b1h221b3p2134393e25392a3g3n1t1t
p1227
sg21
V264342
p1228
sa(dp1229
g19
Vhttp://apifree.forvo.com/audio/1j373p1k3j3e233k2j3o2l2k363n1o323e2q23382i2o3c1h29243i2d1f3m392d2g392c3g1b353p292n2l3n2l1g2235292c1i371j3p3h333k313c3n1f2p3k3h1k_1b1i252a2b2g1i2f2j3l3n37391f242f242j3a283h371t1t
p1230
sg21
V377516
p1231
sa(dp1232
g19
Vhttp://apifree.forvo.com/audio/3q2c2i3g2h343e3l3p2b3b271g3j3e1p26253i1i1j3l2k2c282q2k343b2j3j1m3k3j2p26262332213p3c2e2o2n3c372k3o3q2b2n3f1l1m313m2i25341m3j1g27_2g1g1n231i262a383q393c392g1p1l1h281h2b252k3n1t1t
p1233
sg21
V504005
p1234
sa(dp1235
g19
Vhttp://apifree.forvo.com/audio/3k3l283h1k1f25372f1i2p211p3c2f353i2g3m323h2j1g3d3q1o27371i2n2e2h28321g1j2p3n3f1n1m1i3l211i3o29353p2m1m2e1k3o1n1o333m1o3c341i3n2l_363l1o263h1n231h1m2e343a383n3b1m2a2d38323i371t1t
p1236
sg21
V143105
p1237
sasg7
(dp1238
Vattributes
p1239
(dp1240
Vtotal
p1241
I5
ssVitems
p1242
(lp1243
(dp1244
Vusername
p1245
VAlagon
p1246
sVhits
p1247
V188
p1248
sVcode
p1249
Ven
p1250
sVlangname
p1251
VEnglish
p1252
sVaddtime
p1253
V2009-09-01 02:43:58
p1254
sVpathogg
p1255
g1224
sVpathmp3
p1256
Vhttp://apifree.forvo.com/audio/1o28372h3h1f1m332n26312n2q3g38392e3m222f281l1l3p3p21311p1i31331b342m1b2g23252q1i3o2q2p2e2a352b3m3e393f3l1m1g3e392j3f2j2b382k1n3q_36392b2j2k35252q391i3o39281g2g1j1h2e2d1p1n2h1t1t
p1257
sVsex
p1258
Vm
p1259
sVrate
p1260
V1
p1261
sVnum_positive_votes
p1262
V1
p1263
sVnum_votes
p1264
V1
p1265
sVcountry
p1266
VUnited Kingdom
p1267
sVid
p1268
g1225
sa(dp1269
Vusername
p1270
Vohhhwevad
p1271
sVhits
p1272
V297
p1273
sVcode
p1274
Ven
p1275
sVlangname
p1276
VEnglish
p1277
sVaddtime
p1278
V2009-08-02 23:21:33
p1279
sVpathogg
p1280
g1227
sVpathmp3
p1281
Vhttp://apifree.forvo.com/audio/2q3a271o2o213m3k293b1k3i3k3422322l3o2d2b1j2j3b3i2j382b3527241g2m223l213g1p1b2d26343k1l351f2n39362j3b2n2d2l1b3g2o3g1m2c263i2i1p3n_211h3h3g2n343h283o2p1i3b3i21251j2j3l243q2l371t1t
p1282
sVsex
p1283
Vm
p1284
sVrate
p1285
V1
p1286
sVnum_positive_votes
p1287
V1
p1288
sVnum_votes
p1289
V1
p1290
sVcountry
p1291
VUnited States
p1292
sVid
p1293
g1228
sa(dp1294
Vusername
p1295
VGeoNeil
p1296
sVhits
p1297
V47
p1298
sVcode
p1299
Ven
p1300
sVlangname
p1301
VEnglish
p1302
sVaddtime
p1303
V2009-11-24 20:44:04
p1304
sVpathogg
p1305
g1230
sVpathmp3
p1306
Vhttp://apifree.forvo.com/audio/25363k3g2d3o3j3a383n37322g32223l211h2d2g3m3o31223o1l2237293p2e1o3i3a243m3k3d253q3p3k3f3a3b3a2l312l2o3n242p1k2k3f2a3g3n2f1o36333k_393e1k381k2o3m272e3p283h3i1h3g34231m1h331g371t1t
p1307
sVsex
p1308
Vm
p1309
sVrate
p1310
V0
p1311
sVnum_positive_votes
p1312
I0
sVnum_votes
p1313
V0
p1314
sVcountry
p1315
VUnited Kingdom
p1316
sVid
p1317
g1231
sa(dp1318
Vusername
p1319
Vgreengobbie92
p1320
sVhits
p1321
NsVcode
p1322
Ven
p1323
sVlangname
p1324
VEnglish
p1325
sVaddtime
p1326
V2010-03-08 08:02:37
p1327
sVpathogg
p1328
g1233
sVpathmp3
p1329
Vhttp://apifree.forvo.com/audio/272e1h3k383d3o1m3h372j373m1o3b1n2l3e1m2d372m1g2l2m26242g351f1b3m3f1m373a393o2q3b393h2p3f1m3339271p1n352p1o1f273b241b2a3g282n3c2p_2i263l283d2e2129343l1m2d3i1n2q3h3n3n332g2q371t1t
p1330
sVsex
p1331
Vm
p1332
sVrate
p1333
V0
p1334
sVnum_positive_votes
p1335
I0
sVnum_votes
p1336
V0
p1337
sVcountry
p1338
VAustralia
p1339
sVid
p1340
g1234
sa(dp1341
Vusername
p1342
Vermes
p1343
sVhits
p1344
V412
p1345
sVcode
p1346
Ven
p1347
sVlangname
p1348
VEnglish
p1349
sVaddtime
p1350
V2009-03-22 11:15:24
p1351
sVpathogg
p1352
g1236
sVpathmp3
p1353
Vhttp://apifree.forvo.com/audio/321m2e3j3f1b3d2f3o1j1h1f1n2o39311p3n3e2k1g3g1l243a2n3k3o21392g393l3q361p2b341i231n27253e342a24251b3q341p3g2k3p29362g3l322e3d2c1b_3h2h3b3h2n332g2e1g2j3i1n3p2c2d2e2g212e2m1g2h1t1t
p1354
sVsex
p1355
Vm
p1356
sVrate
p1357
V0
p1358
sVnum_positive_votes
p1359
I0
sVnum_votes
p1360
V0
p1361
sVcountry
p1362
VItaly
p1363
sVid
p1364
g1237
sassbsVago,
p1365
(iforvo
ForvoResponse
p1366
(dp1367
g417
I0
sg418
(lp1368
sg449
(dp1369
Vattributes
p1370
(dp1371
Vtotal
p1372
I0
ssVitems
p1373
(lp1374
ssbsVreturned
p1375
(iforvo
ForvoResponse
p1376
(dp1377
g4
I2
sg5
(lp1378
(dp1379
g19
Vhttp://apifree.forvo.com/audio/3c3q2g1n323q3j312i3q213c383p2l3g2c1j2d36263c3g243b242e3i273d2a2o2p3n23382l3q3n322e282j2c2b1m22322f2e1n3c322d1m3j252n242p2b1m3225_3k3f3f391i2j2i2h2j2d2b393b3f29312o313n3o1f211t1t
p1380
sg21
V34726
p1381
sa(dp1382
g19
Vhttp://apifree.forvo.com/audio/38343q232h2q372h3k2e2l3e3f1m2a2e3l1m3h3a273d212p3c351o293m3f3p2528392c1j363l3i253c2f2d3h271j3j2q2c3q1l271b2b35332e213d1j2b3f1o1l2m2e282d2d242f28323f262j392834393g3n3m293q371t1t_2m1m2m3a3j1b1n2o3b2i2n3q2h333m3n3e2k3c3l373n1t1t
p1383
sg21
V38310
p1384
sasg7
(dp1385
Vattributes
p1386
(dp1387
Vtotal
p1388
I2
ssVitems
p1389
(lp1390
(dp1391
Vusername
p1392
Vfordum
p1393
sVhits
p1394
V121
p1395
sVcode
p1396
Ven
p1397
sVlangname
p1398
VEnglish
p1399
sVaddtime
p1400
V2008-08-06 13:37:05
p1401
sVpathogg
p1402
g1380
sVpathmp3
p1403
Vhttp://apifree.forvo.com/audio/2h1g1g2m1h231g341h3b1b2g2a1l361o332h2q27311g2m1g1f2d2k2k2g2g2f322k221n2f3b221n3k1b1l262h1f2h1l2a363l3g2a35343m2d282m232n332i2b34_3n281l3i34381f3c21322k371o1h3f271j2239211i3n1t1t
p1404
sVsex
p1405
Vf
p1406
sVrate
p1407
V0
p1408
sVnum_positive_votes
p1409
I0
sVnum_votes
p1410
V0
p1411
sVcountry
p1412
VAustralia
p1413
sVid
p1414
g1381
sa(dp1415
Vusername
p1416
Vanakat
p1417
sVhits
p1418
V160
p1419
sVcode
p1420
Ven
p1421
sVlangname
p1422
VEnglish
p1423
sVaddtime
p1424
V2008-09-10 02:06:08
p1425
sVpathogg
p1426
g1383
sVpathmp3
p1427
Vhttp://apifree.forvo.com/audio/1j28262e321i3f293q1f2h3f2i3d231o25351m333l1j213k3d1l35251i371o253d1f1l33252231212m2f311p2e2e313l2h3h353m1f1f1k3d2h391l1l2p1o2f1p2c3h1m2q3g1g253q2n3h34281n1b1b213f2c1k2k1f3n1t1t_1i1o262i1j2h242j333f3d3p391k3a1o3h2q2f393f371t1t
p1428
sVsex
p1429
Vf
p1430
sVrate
p1431
V0
p1432
sVnum_positive_votes
p1433
I0
sVnum_votes
p1434
V0
p1435
sVcountry
p1436
VUnited States
p1437
sVid
p1438
g1384
sassbsVplayers 
p1439
(iforvo
ForvoResponse
p1440
(dp1441
g4
I2
sg5
(lp1442
(dp1443
g19
Vhttp://apifree.forvo.com/audio/28253q2e1i283k3j2f2638271o2b1i1b372p1o293h343d1g232l281h2g3f39262h2e3e1g252o2a2q3o3c242i3a1b2j253p2p1g332c2936232o3q371p1k2j2i3q1k1o331o282j3c1m3o2f2b2h1m3b3c3k3j2b3i3o3e211t1t_1i2125381m39233f1b213e373f3133273p341i342c3n1t1t
p1444
sg21
V246410
p1445
sa(dp1446
g19
Vhttp://apifree.forvo.com/audio/2d1i1f2a2p261i262p2i2m3p3h3f2i3l1b353l3g3b3k1j353i3m3m1k39322l231j1j3h2f393f352a3p3m1p3m1l2o1j273m3p1o3d2k3p3m2a1j3h3j21323d3d1k_3238261o2h3q341m293b3k3135262a2h3c1n233e3b211t1t
p1447
sg21
V87452
p1448
sasg7
(dp1449
Vattributes
p1450
(dp1451
Vtotal
p1452
I2
ssVitems
p1453
(lp1454
(dp1455
Vusername
p1456
VTopQuark
p1457
sVhits
p1458
V70
p1459
sVcode
p1460
Ven
p1461
sVlangname
p1462
VEnglish
p1463
sVaddtime
p1464
V2009-07-08 04:27:30
p1465
sVpathogg
p1466
g1444
sVpathmp3
p1467
Vhttp://apifree.forvo.com/audio/3l2a2b1l2q1i3m2e2g1n2f3g3h3m3i2c1f3239253n2l34391n3k28281n1h3h2p36313233253o2e1h1o2i39352i2m3l3g37292f2d2o3c242g1m1f2i2629271o281p1f28281h3n1l2k372q1o1g3l3433373j2n2123323n1t1t_2m3e2j1g3i2h3o211l393q39243e353o1p333f2a1n211t1t
p1468
sVsex
p1469
Vm
p1470
sVrate
p1471
V3
p1472
sVnum_positive_votes
p1473
V3
p1474
sVnum_votes
p1475
V3
p1476
sVcountry
p1477
VUnited Kingdom
p1478
sVid
p1479
g1445
sa(dp1480
Vusername
p1481
Vpetaluma
p1482
sVhits
p1483
V65
p1484
sVcode
p1485
Ven
p1486
sVlangname
p1487
VEnglish
p1488
sVaddtime
p1489
V2008-12-29 18:09:22
p1490
sVpathogg
p1491
g1447
sVpathmp3
p1492
Vhttp://apifree.forvo.com/audio/2k3c252k2o2f2i283e2o21263f211k3p1j263i1p3o2q3c292i1o3a2f1i3i1h2f393f1b3k223d26242h3f2h3a242n343q1g1b1h2e263d2g1b2b3q3d2c3a2p2334_1l3j3e3o3k3e2e1p21332i3o3n2e1h251j2d1f2d2b371t1t
p1493
sVsex
p1494
Vf
p1495
sVrate
p1496
V0
p1497
sVnum_positive_votes
p1498
I0
sVnum_votes
p1499
V0
p1500
sVcountry
p1501
VUnited States
p1502
sVid
p1503
g1448
sassbsVlong, 
p1504
(iforvo
ForvoResponse
p1505
(dp1506
g417
I0
sg418
(lp1507
sg449
(dp1508
Vattributes
p1509
(dp1510
Vtotal
p1511
I0
ssVitems
p1512
(lp1513
ssbsVmore 
p1514
(iforvo
ForvoResponse
p1515
(dp1516
g4
I3
sg5
(lp1517
(dp1518
g19
Vhttp://apifree.forvo.com/audio/3d343p342l1j273k2p353e2b3b3g1b1g2g25262k383c3m3e3g2c2i1b1h2m1o1m1n2j353m2o2e2j3b1n1n3o371n2i35253c2c312k2p2a1o1f3n382f3e1g3p352q_3o2i341l2n261j3l3f3o3p3o3q2g351j1b3g3l1b24211t1t
p1519
sg21
V151465
p1520
sa(dp1521
g19
Vhttp://apifree.forvo.com/audio/1m1p243f3b3b3823391k2p3n1f3d3j393p2a3i3p3k233o351f391f2422272o2b2c2c241o1j2n2e2m381m322g3b3b262k37251k1o3a3f1j241g3h2a342b3g3b3n_292b331o1g35213b2n29362731352f3g3k38353n1f371t1t
p1522
sg21
V157046
p1523
sa(dp1524
g19
Vhttp://apifree.forvo.com/audio/323f2m1k2n362j3n2b1g1f373p3i1o2g1h35231g3f3n262h2m352o211g37233d3m1k3b3l3f243o243e2j1i3j3g1n1b3e31253h3h3j3o2m321o1m2d2m252k211l_3m3d3i1j3d1g3c2g2o1j343l2f3o1n3c331n2h233p2h1t1t
p1525
sg21
V687404
p1526
sasg7
(dp1527
Vattributes
p1528
(dp1529
Vtotal
p1530
I3
ssVitems
p1531
(lp1532
(dp1533
Vusername
p1534
VSar27
p1535
sVhits
p1536
V375
p1537
sVcode
p1538
Ven
p1539
sVlangname
p1540
VEnglish
p1541
sVaddtime
p1542
V2009-04-15 15:17:27
p1543
sVpathogg
p1544
g1519
sVpathmp3
p1545
Vhttp://apifree.forvo.com/audio/273j393j3p283p343a1b292g2f3n3b2n3l3k2e1h373o2m2f3k2e233e3f3l3939242j1p2i2a3k3j3o31323p22212n381o3b282m331p273n1k2k263p1k2h2e2h2f_1j37343a2e283p2i1o3o2p1f1o1n1i2b2l2d1n2k32211t1t
p1546
sVsex
p1547
Vf
p1548
sVrate
p1549
V5
p1550
sVnum_positive_votes
p1551
V5
p1552
sVnum_votes
p1553
V5
p1554
sVcountry
p1555
VUnited States
p1556
sVid
p1557
g1520
sa(dp1558
Vusername
p1559
Vpalashdave
p1560
sVhits
p1561
V342
p1562
sVcode
p1563
Ven
p1564
sVlangname
p1565
VEnglish
p1566
sVaddtime
p1567
V2009-04-24 00:44:23
p1568
sVpathogg
p1569
g1522
sVpathmp3
p1570
Vhttp://apifree.forvo.com/audio/293h261f1m1b1j1g232p1k223533373p2i3o283e2b2d3k222d3f1l313q33282k223d2o38382n3h1j31341j332333341j1f3p2o2k3k2424222g373k1b221b1b3g_28222m21243q2l1k3h37271n272h3p3b1i22363d2k2h1t1t
p1571
sVsex
p1572
Vm
p1573
sVrate
p1574
V4
p1575
sVnum_positive_votes
p1576
V4
p1577
sVnum_votes
p1578
V4
p1579
sVcountry
p1580
VUnited Kingdom
p1581
sVid
p1582
g1523
sa(dp1583
Vusername
p1584
Vgreengobbie92
p1585
sVhits
p1586
NsVcode
p1587
Ven
p1588
sVlangname
p1589
VEnglish
p1590
sVaddtime
p1591
V2010-07-26 13:36:46
p1592
sVpathogg
p1593
g1525
sVpathmp3
p1594
Vhttp://apifree.forvo.com/audio/2i2k2h2l2f3e1m3a353c3j1i2a33362g1i2a342k341i2e391k262b3e1b223j3e392q222o3l3h2c3634323d2h2j3o3o2c1h3a2l283q3e3n1o2d1k2g1o291b3p1n_1f2f3f2p1f2d1g243m2c1n2d38222g2c3p2g3d1b293n1t1t
p1595
sVsex
p1596
Vm
p1597
sVrate
p1598
V0
p1599
sVnum_positive_votes
p1600
I0
sVnum_votes
p1601
V0
p1602
sVcountry
p1603
VAustralia
p1604
sVid
p1605
g1526
sassbsVsave 
p1606
(iforvo
ForvoResponse
p1607
(dp1608
g4
I1
sg5
(lp1609
(dp1610
g19
Vhttp://apifree.forvo.com/audio/1o2l2j3k2c3m263g1l3c3a2h1j3k2b2l3a3f233m1b1j2m2l3h2a2f2c212c1h352g2i2q1b3g2k1o223n2f313d262g3a291b2o3o323q1b2l322b2l362o382k2c1j_3b1g2m3d2n1p3a1i2n2q331g2n3a3l3b3d38251m1g211t1t
p1611
sg21
V163870
p1612
sasg7
(dp1613
Vattributes
p1614
(dp1615
Vtotal
p1616
I1
ssVitems
p1617
(lp1618
(dp1619
Vusername
p1620
Vpalashdave
p1621
sVhits
p1622
V148
p1623
sVcode
p1624
Ven
p1625
sVlangname
p1626
VEnglish
p1627
sVaddtime
p1628
V2009-05-02 01:48:35
p1629
sVpathogg
p1630
g1611
sVpathmp3
p1631
Vhttp://apifree.forvo.com/audio/3b3d3i2m2f3g3g2h391k2j2e243h1h3m273b1f213b3c3c291g2l2n32363c3d2b293q3k311b3l3h1n3p2j2336313f2f2f213j3m3i1i3b2o292b3j313d3e223234_2p1j241p2p1h3h1k1n1b3l273i1h2d2c1j2g1j282f211t1t
p1632
sVsex
p1633
Vm
p1634
sVrate
p1635
V0
p1636
sVnum_positive_votes
p1637
I0
sVnum_votes
p1638
V0
p1639
sVcountry
p1640
VUnited Kingdom
p1641
sVid
p1642
g1612
sassbsVlong 
p1643
(iforvo
ForvoResponse
p1644
(dp1645
g417
I2
sg418
(lp1646
(dp1647
g421
Vhttp://apifree.forvo.com/audio/3c3k342p312k2a253b212i351j2k3l2j2d333k222k3e3e3l2m2q3d2h2h373a1o2h3c1k1o3o273j1i24222m1p2a3k261h341l251o2f2227262n1o3p3j22242b252a2d283h3421262p292p3o272a2f1f1b3h3p3k2b3l3n1t1t_2m1f341n3p383l24292h3232273f2b2l3i3m22251n3n1t1t
p1648
sg423
V98046
p1649
sa(dp1650
g421
Vhttp://apifree.forvo.com/audio/341i28353n2k1o3c1j2g1o29362o1o213i282d2h24253a361f2m391b3h3q2i3n273f212g1m28333f1f3l2g35252p2j3o3h3k331h2d2a3l1o323b3k1j3i2b3m3d2o292b3l2n2o3b1o2i25352435383i1b3k2d321p2g371t1t_352b1b2e1j26352l2p2p3k1k1j2n3c3o212l1f3l32211t1t
p1651
sg423
V439975
p1652
sasg449
(dp1653
Vattributes
p1654
(dp1655
Vtotal
p1656
I2
ssVitems
p1657
(lp1658
(dp1659
Vusername
p1660
Vgeneralbelly
p1661
sVhits
p1662
V216
p1663
sVcode
p1664
Ven
p1665
sVlangname
p1666
VEnglish
p1667
sVaddtime
p1668
V2009-01-10 16:30:41
p1669
sVpathogg
p1670
g1648
sVpathmp3
p1671
Vhttp://apifree.forvo.com/audio/222p292e2d2o3d343p22371m3a2j251i313m1b3j2i1b3d3m3o3j2l2f1i211b3f32253a1j25342k1o1f3k3b293n3h2q382m2o342c2k3e2324342b1n2d2h1k2939283l1m3a2m2b3k1o3n2m3k2m2q3l332j371p351i3p2h1t1t_22391k1l2b2a3m1o381l2i1g3m3a2q3g2c3g3336393n1t1t
p1672
sVsex
p1673
Vm
p1674
sVrate
p1675
V0
p1676
sVnum_positive_votes
p1677
I0
sVnum_votes
p1678
V0
p1679
sVcountry
p1680
VIreland
p1681
sVid
p1682
g1649
sa(dp1683
Vusername
p1684
Vkurtywurty85
p1685
sVhits
p1686
V9
p1687
sVcode
p1688
Ven
p1689
sVlangname
p1690
VEnglish
p1691
sVaddtime
p1692
V2010-01-21 02:22:40
p1693
sVpathogg
p1694
g1651
sVpathmp3
p1695
Vhttp://apifree.forvo.com/audio/2g3b2k2239363d1k2g1n392q342d3c3n2c1m3n3l3l253b3d382g1h2p34243k2b3i3h312b33223i343a1f2f3a1i1k3226391o3l26371h1n331p3f3e3k3g353q363d2c3l2p35221g2i263l3k262b1n3l251f281o3q39211t1t_3f2g3n3e3j2g2o1k341o1h33352l3228222p312h3d371t1t
p1696
sVsex
p1697
Vf
p1698
sVrate
p1699
V0
p1700
sVnum_positive_votes
p1701
I0
sVnum_votes
p1702
V0
p1703
sVcountry
p1704
VUnited Kingdom
p1705
sVid
p1706
g1652
sassbsVa
p1707
(iforvo
ForvoResponse
p1708
(dp1709
g347
I9
sg348
(lp1710
(dp1711
g351
Vhttp://apifree.forvo.com/audio/222o1i1o331m2j3k373b2m2n3q2e342m2e2d252l2l1f1n1g1f2q2a3p37263g2h35212j1i28273m2f2a1g1m3m2l3m2a2f3n29263b3m3j2b2l3p1g3l2a321h3q2l28323939263e2b341o2p352l3a233l24221h353f3g211t1t_2m37233n3q393833391p3d2i223p283o3h3a3532263n1t1t
p1712
sg353
V130097
p1713
sa(dp1714
g351
Vhttp://apifree.forvo.com/audio/2f373b2p3829372j1l2b251f1b3o3k2k2p253e383724272a1n2q2l3d3p3j373h3k2c2c1k312g313b3g2o381k2p1l2e3j3a32283i3f352i26212d23281n371p3k_3o2h2p3h3f1m1k3h1o341k233c2m2d3e211g3n2625211t1t
p1715
sg353
V55791
p1716
sa(dp1717
g351
Vhttp://apifree.forvo.com/audio/331k263h3e3h1o2f292h3m1f2m2a343m1m3k383n3k3i252l2d231g34251o222k2e3l1j3e3m2d2a2p1h2h282k2m3i1n3i2p2a1l1h3e3i3721232i21222c1l323c1h311g3b2b36282f23393j3i3h3i1f35262c373p28371t1t_391o2g3h3n361j3a3c3c3b1h3227342m313k25232h371t1t
p1718
sg353
V171189
p1719
sa(dp1720
g351
Vhttp://apifree.forvo.com/audio/392p3n32251m2h2q31293c2k323k2k3p231f2e221p3n1l2g3n2c323d2g3o262q22322331293q2j2p3e361b232k381m2c2j1j1m1h2627363b1f3b1m1i2q2c1n21_3839273a1m2a2k361f342837272k3l271k1o1g363a2h1t1t
p1721
sg353
V52884
p1722
sa(dp1723
g351
Vhttp://apifree.forvo.com/audio/3k1b3b3k23331j2c3j1g241k3p3c283p2o3q3g2f1n1k3n251h1m38351o2l3l351g1n2m2l363i1o3d2n2p1n3l1o1l3331272p1l3i382i2h2l383l1p33313m321j_2m2l2n3j2p2c1m2c3l1p2k1h1i1p2p3a1b323q3e33371t1t
p1724
sg353
V57391
p1725
sa(dp1726
g351
Vhttp://apifree.forvo.com/audio/3h313l3122283k2b23353k391j2d2m242i2p332m373h382m2e2k2l2b3p3d1o343k2q3p2i311n392i1p27213l3d3p351p2n2a383m251o1n352n251j233o3b3o2h253f3l273b2m3m1o3q243p272f271n3j2c2p31352b371t1t_1i261n211j2h3c1m2d2b351n3g2f3m3c3i2h1o2g39371t1t
p1727
sg353
V222570
p1728
sa(dp1729
g351
Vhttp://apifree.forvo.com/audio/263g3p1h2h3a3j281b2o1k2n3o2f261f2e3j222c2j2d1m3q3m2h3h2m222m2i222b23232f2g1i232i3g3l2i3i32232m382q2j252e1h2g1n1k3f3b2e2e1i2g2b2138353b22212d3i2q3b3327322m392c242q2q223o1b3n1t1t_342l2c3q2c3d392m32293h2d1o2m3i3a2e3i2k1j2k3n1t1t
p1730
sg353
V587630
p1731
sa(dp1732
g351
Vhttp://apifree.forvo.com/audio/1i2k2i3i2n392n1m1p261f3g1g1p3b3g3i3i3c3c391k3o3g1f363e263d2p2a1k37393k3b2i1p3l293e3l3i3e3h293j2l2n1n3n1m3l3h1m2d1g3a1n28243i3f2f_333c243i3e3k3h3g3h313k2126241m1h381g3o313f371t1t
p1733
sg353
V21219
p1734
sa(dp1735
g351
Vhttp://apifree.forvo.com/audio/2e1j2c3m3k2o2h1f261l1o34233a1n391h2a1f2q23262b222k3f1l3c1m231g3h3e21283a1k3o29363a391h3o2622392h3e251f3q3h3q3k1m1n291b3n3g26222d392m36311p213g1p2f321i31391o3c3q282a2n2d3a2h1t1t_3h2e1f3g1j3d1i2q1o331i1b2j232h2j223n1f2j2l211t1t
p1736
sg353
V372813
p1737
sasg358
g1707
sg359
(dp1738
Vattributes
p1739
(dp1740
Vtotal
p1741
I9
ssVitems
p1742
(lp1743
(dp1744
Vusername
p1745
Vfast46
p1746
sVhits
p1747
V723
p1748
sVcode
p1749
Ven
p1750
sVlangname
p1751
VEnglish
p1752
sVaddtime
p1753
V2009-02-21 23:29:42
p1754
sVpathogg
p1755
g1712
sVpathmp3
p1756
Vhttp://apifree.forvo.com/audio/391k3q3f2439312k243e2a271l32332c1f1i211b2k3h27222f21251l3a3c2j2o1l1i3n2638313n1n263h353i38362a3n3d3d2m3j1i1h2p32352c2e1h3a1o3q1n263f1b3a3a23291i2h21342e1h3a3l262f362d2p2a371t1t_273e3e3a251g1h2c2e3k352j3l3q2n3a2m2a1h3n383n1t1t
p1757
sVsex
p1758
Vf
p1759
sVrate
p1760
V4
p1761
sVnum_positive_votes
p1762
V4
p1763
sVnum_votes
p1764
V4
p1765
sVcountry
p1766
VUnited States
p1767
sVid
p1768
g1713
sa(dp1769
Vusername
p1770
Vcitizenchu
p1771
sVhits
p1772
V265
p1773
sVcode
p1774
Ven
p1775
sVlangname
p1776
VEnglish
p1777
sVaddtime
p1778
V2008-11-09 07:42:07
p1779
sVpathogg
p1780
g1715
sVpathmp3
p1781
Vhttp://apifree.forvo.com/audio/341l3g313a2225381l291m272q381g3a1f232i3h3f1o1h3f31273c1o2d2l3g23381m2n2h3a2a1o2g2g3d2a3e381b3i31273j1b2j322l2k213g2q271j3j1k261b_3f2d1h1g39322c1m3g2a1b3k2n273a2l3o313l35292h1t1t
p1782
sVsex
p1783
Vf
p1784
sVrate
p1785
V3
p1786
sVnum_positive_votes
p1787
V3
p1788
sVnum_votes
p1789
V3
p1790
sVcountry
p1791
VUnited States
p1792
sVid
p1793
g1716
sa(dp1794
Vusername
p1795
Veris
p1796
sVhits
p1797
V131
p1798
sVcode
p1799
Ven
p1800
sVlangname
p1801
VEnglish
p1802
sVaddtime
p1803
V2009-05-06 03:03:05
p1804
sVpathogg
p1805
g1718
sVpathmp3
p1806
Vhttp://apifree.forvo.com/audio/3q2k3c3f1m363n3c362f1f3h372f2o3q333d1m2g3o382a262c282p27382l282p372l352i393233322n1g352e3j29393c2l3l1k223n352f1p213m2p2k383o373j212b3g2m282i2h2e1m3d3j2d3o3c1b3d2f213c1l31371t1t_3q322l1o3m222i3l2j293h1m2k2f2h323e3f3l3o3p2h1t1t
p1807
sVsex
p1808
Vf
p1809
sVrate
p1810
V3
p1811
sVnum_positive_votes
p1812
V3
p1813
sVnum_votes
p1814
V3
p1815
sVcountry
p1816
VUnited States
p1817
sVid
p1818
g1719
sa(dp1819
Vusername
p1820
Vmooncow
p1821
sVhits
p1822
V364
p1823
sVcode
p1824
Ven
p1825
sVlangname
p1826
VEnglish
p1827
sVaddtime
p1828
V2008-11-02 05:05:16
p1829
sVpathogg
p1830
g1721
sVpathmp3
p1831
Vhttp://apifree.forvo.com/audio/34313d3k2k3g22383e2c3g2a1i1l2e2l29312h2o1i3k1g3b2a3d3k1k222l1k3l2b382a3m1j2k343a233l3h393834363h1o1b2e373p372f2926272k3d213a1g2b_2p3b1i2b281j1n2l1k3j231f331j371h3l233k2h3e211t1t
p1832
sVsex
p1833
Vm
p1834
sVrate
p1835
V3
p1836
sVnum_positive_votes
p1837
V3
p1838
sVnum_votes
p1839
V3
p1840
sVcountry
p1841
VUnited Kingdom
p1842
sVid
p1843
g1722
sa(dp1844
Vusername
p1845
VLiam
p1846
sVhits
p1847
V188
p1848
sVcode
p1849
Ven
p1850
sVlangname
p1851
VEnglish
p1852
sVaddtime
p1853
V2008-11-11 17:23:54
p1854
sVpathogg
p1855
g1724
sVpathmp3
p1856
Vhttp://apifree.forvo.com/audio/1l2m3d2i212p3h362i3o3j2m341f2n1i2q353e231h3i1j3m1i2g2d1o2l1p3a3328343o3i2h242i2o2h3d2c3l1l2d2d2m2i3d2q2a1m2h372p3d39383j2f3j233q_1i223g2k2j1n2p273m1l31271m3i2g262b3a1p2e1o3n1t1t
p1857
sVsex
p1858
Vm
p1859
sVrate
p1860
V1
p1861
sVnum_positive_votes
p1862
V2
p1863
sVnum_votes
p1864
V3
p1865
sVcountry
p1866
VUnited Kingdom
p1867
sVid
p1868
g1725
sa(dp1869
Vusername
p1870
VTopQuark
p1871
sVhits
p1872
V97
p1873
sVcode
p1874
Ven
p1875
sVlangname
p1876
VEnglish
p1877
sVaddtime
p1878
V2009-06-10 01:26:42
p1879
sVpathogg
p1880
g1727
sVpathmp3
p1881
Vhttp://apifree.forvo.com/audio/2a3f2321333p1g25332o2q27213f2j1j3d2c221h292e2f3o313o2q1k3h3d1h3f1i2q2h2e2q1p393i1f282b343l1g31341n3n1l3e3l1m3k231o24253q1k262j1o2l1o2a3f2e1n3226241i362b1g3a3a363736241i2k3n1t1t_262m27383f2o35282k393q2h2j273j1l3n281b261b2h1t1t
p1882
sVsex
p1883
Vm
p1884
sVrate
p1885
V1
p1886
sVnum_positive_votes
p1887
V1
p1888
sVnum_votes
p1889
V1
p1890
sVcountry
p1891
VUnited Kingdom
p1892
sVid
p1893
g1728
sa(dp1894
Vusername
p1895
VFrazJam
p1896
sVhits
p1897
NsVcode
p1898
Ven
p1899
sVlangname
p1900
VEnglish
p1901
sVaddtime
p1902
V2010-05-18 21:17:58
p1903
sVpathogg
p1904
g1730
sVpathmp3
p1905
Vhttp://apifree.forvo.com/audio/223q1h2o1k2l3m2727291o3b23283e2h372d1k3c231m1p1j223g3f3a3a3q351n3p2a1f1o323m2h31362q3b2n3c342e2j2j3k1f3o391j3i3b1b1i1n221b1o1o2m2o3n3i1f2c3m2a293a2b293p2k1k3n3q242629221m3n1t1t_221b3421351p2c3l1i2k221i2l35262b372a3e352i371t1t
p1906
sVsex
p1907
Vm
p1908
sVrate
p1909
V1
p1910
sVnum_positive_votes
p1911
V1
p1912
sVnum_votes
p1913
V1
p1914
sVcountry
p1915
VUnited Kingdom
p1916
sVid
p1917
g1731
sa(dp1918
Vusername
p1919
Vlightinthedarkness
p1920
sVhits
p1921
V269
p1922
sVcode
p1923
Ven
p1924
sVlangname
p1925
VEnglish
p1926
sVaddtime
p1927
V2008-06-15 22:06:40
p1928
sVpathogg
p1929
g1733
sVpathmp3
p1930
Vhttp://apifree.forvo.com/audio/1l1g3j233b29251b3h363b3f1l2d3i333a293k2m232i352h2a3k2b1h1b3e353q3c251h3a231g2q2g1g1l3m1p343n1h1m2h3b22233o2a3d2k242a3326243m2g1b_263h2n3h3o2q1j2238232c3l3c25391p283m2o321g371t1t
p1931
sVsex
p1932
Vf
p1933
sVrate
p1934
V1
p1935
sVnum_positive_votes
p1936
V1
p1937
sVnum_votes
p1938
V1
p1939
sVcountry
p1940
VCanada
p1941
sVid
p1942
g1734
sa(dp1943
Vusername
p1944
Vjoshua99
p1945
sVhits
p1946
V43
p1947
sVcode
p1948
Ven
p1949
sVlangname
p1950
VEnglish
p1951
sVaddtime
p1952
V2009-11-17 21:15:59
p1953
sVpathogg
p1954
g1736
sVpathmp3
p1955
Vhttp://apifree.forvo.com/audio/3c1i1f2l23333f1l2q1m333o252j27282d2j3f1h2h3g1o3i2h291k1o32323f2l23373g3e3e1g1n222i2e3n3i3i2l1k2a3k1g3c3p3q272j1m1b2p3n3p1l3k3l2k1g2l2e3g1k3m22351g253p3h3g263j382k1b363f33371t1t_381k321h1k1j222h2f313h3o34392n2f381l22273p211t1t
p1956
sVsex
p1957
Vm
p1958
sVrate
p1959
V-1
p1960
sVnum_positive_votes
p1961
I0
sVnum_votes
p1962
V1
p1963
sVcountry
p1964
VChina
p1965
sVid
p1966
g1737
sassbsVmaybe 
p1967
(iforvo
ForvoResponse
p1968
(dp1969
g4
I5
sg5
(lp1970
(dp1971
g19
Vhttp://apifree.forvo.com/audio/38241g2l212q2f3q373p2d2q3d233a3m3i2i3n2g1k3c2n3j2i1o3722253f1f3k1b1m1n2i3425341k35221m2i1j1o392g292c393d243m3n2f2p1p3g2h2g3g2c1n2l261o3d1n263g2j272e373o353p281n283g3l3m2m211t1t_2j2i323q261f1g2f2n271m29331p3k33312a361h1o371t1t
p1972
sg21
V209510
p1973
sa(dp1974
g19
Vhttp://apifree.forvo.com/audio/1f1m283e322p252b2j1p292i273n263d2d1g1k373j3d243l2d3k231j3j3b3d2j3d3c1o341p31352f3j211m2a2q3o3l2p3j2i38332n332i242d3j3h2q1g1m3m2q1h3k1k3b3k31262l1l2n1n2j3p3g331l2o1n2p2h1k371t1t_2q2h1l2p1o1o2i23212b3o241o2m2g2l312e1f1k24211t1t
p1975
sg21
V328427
p1976
sa(dp1977
g19
Vhttp://apifree.forvo.com/audio/263j2i3b3i2a252d353f223k3f2n2a2q2h2d3k253a3p1f1j1n1h3c2d1l3o2g1g3q3g3h3a2h3i2g3l1l37252a1m2q3i1b1k2a3k2d3g261o3h3h3e1n2p1k3g283j1b1m2o22232p33333c283o363n382j2n292g1i1f1j3n1t1t_263g392o2g3a2b291l2k1n243f3a1g2o2o3b3m23392h1t1t
p1978
sg21
V595785
p1979
sa(dp1980
g19
Vhttp://apifree.forvo.com/audio/2o31382b1j23323a393n1p1f1o2h273l3g1b3p3o3n3e2e2l1o3m252q1h3d3k222d233p1b2l3a351m2f342l1o31271m1l3c1j1p2d331b3q2e2a3d21361n362a2o_1j1f2h2n2g3k1h1p3g3g1l2b2832372d2n2i322e2h371t1t
p1981
sg21
V53000
p1982
sa(dp1983
g19
Vhttp://apifree.forvo.com/audio/313f1l2k3j361i3g1n3l1g2j3f2l1o2g262g2a1f27252k1g1l312e1o2229363a2j2k2n272m2a3j232e222l3l1i2q2l3k322b331h341o2a3o2j25352d243e2q221p2b3f392q3h2d2n2o2l3j1h27281p1k362e3639392h1t1t_2b1m3q233b1o3q2e362p1n3m212f2q2h3k33392n3h211t1t
p1984
sg21
V66776
p1985
sasg7
(dp1986
Vattributes
p1987
(dp1988
Vtotal
p1989
I5
ssVitems
p1990
(lp1991
(dp1992
Vusername
p1993
Valison
p1994
sVhits
p1995
V88
p1996
sVcode
p1997
Ven
p1998
sVlangname
p1999
VEnglish
p2000
sVaddtime
p2001
V2009-05-30 16:55:36
p2002
sVpathogg
p2003
g1972
sVpathmp3
p2004
Vhttp://apifree.forvo.com/audio/332628233l353k2d3f321p222a23261g2f322f3m1n3o3l1o3n2f2d3k2p2429312d1g332732232h2i39241b3o3f2g2l1l2p3f311p222a3j2i1k1b3f1h3636352n1i27293b2i2p2j1m3l2g1h1o2p36232m3p27213m23211t1t_1l3e2m391i262i223c251l32252o1g2j3i1i381o2d2h1t1t
p2005
sVsex
p2006
Vf
p2007
sVrate
p2008
V0
p2009
sVnum_positive_votes
p2010
I0
sVnum_votes
p2011
V0
p2012
sVcountry
p2013
VAustralia
p2014
sVid
p2015
g1973
sa(dp2016
Vusername
p2017
VShotgunLobotomy
p2018
sVhits
p2019
V38
p2020
sVcode
p2021
Ven
p2022
sVlangname
p2023
VEnglish
p2024
sVaddtime
p2025
V2009-09-30 11:31:37
p2026
sVpathogg
p2027
g1975
sVpathmp3
p2028
Vhttp://apifree.forvo.com/audio/3f3p1b3i3j2c1k35352g3q2a1n2f3n2g363b2e2a3o35273g363c1l1n2i1i3p3f2j2p331m2g392e222m3o1f3i2i3231292h2l2m213a1b3d3k3f1b2l1k27261p3l1h2i3i1p2l23253p362n321j1n3f3j1g2k213b1p2d2h1t1t_343d212m371j3d36292a1p2c1j2h3m1n373m3c1b33211t1t
p2029
sVsex
p2030
Vm
p2031
sVrate
p2032
V0
p2033
sVnum_positive_votes
p2034
I0
sVnum_votes
p2035
V0
p2036
sVcountry
p2037
VUnited States
p2038
sVid
p2039
g1976
sa(dp2040
Vusername
p2041
Vfloridagirl
p2042
sVhits
p2043
NsVcode
p2044
Ven
p2045
sVlangname
p2046
VEnglish
p2047
sVaddtime
p2048
V2010-05-24 02:43:16
p2049
sVpathogg
p2050
g1978
sVpathmp3
p2051
Vhttp://apifree.forvo.com/audio/3l3g1i1o293p2i1n2d2d2l3k3p2n2d3d1j1p2h3a292l1j2n1p372h3e2722353g3q3d2m1l1g1m1j3g363f3c2228383m2d2h352q3k2a241b2q1j2n3b2f243p2d3o362p2p1n1o2q3q243g2l1j1o272i2337213b1n2o3f371t1t_1k35272h1h273j3m3m1b351g281o2p2m1g1b332a1h371t1t
p2052
sVsex
p2053
Vf
p2054
sVrate
p2055
V0
p2056
sVnum_positive_votes
p2057
I0
sVnum_votes
p2058
V0
p2059
sVcountry
p2060
VUnited States
p2061
sVid
p2062
g1979
sa(dp2063
Vusername
p2064
Vmooncow
p2065
sVhits
p2066
V73
p2067
sVcode
p2068
Ven
p2069
sVlangname
p2070
VEnglish
p2071
sVaddtime
p2072
V2008-11-02 14:12:28
p2073
sVpathogg
p2074
g1981
sVpathmp3
p2075
Vhttp://apifree.forvo.com/audio/391i3o1o39363k2e21352d2p3p2a311o391g311i34362f251k1k1m292l311l3b3q2c1i37293q3a3b352a3k3l25313h3l1b3d2c1k2p3j3h2a2k3f3p2h3j3e232m_3k3f2a1b2c2b23323d1o3f3n313n3k293k353h213f211t1t
p2076
sVsex
p2077
Vm
p2078
sVrate
p2079
V0
p2080
sVnum_positive_votes
p2081
I0
sVnum_votes
p2082
V0
p2083
sVcountry
p2084
VUnited Kingdom
p2085
sVid
p2086
g1982
sa(dp2087
Vusername
p2088
VLinkeyEh
p2089
sVhits
p2090
V71
p2091
sVcode
p2092
Ven
p2093
sVlangname
p2094
VEnglish
p2095
sVaddtime
p2096
V2008-11-22 22:51:47
p2097
sVpathogg
p2098
g1984
sVpathmp3
p2099
Vhttp://apifree.forvo.com/audio/3g312d3p2q333d313g3k2e2l37261h1g1j2h1l221f2135262n2f2q3c2m2o3d3j3k1m3i3f323h221g2g3i1h3b1l1n321o1j1l1b39293k37272f38231m352n33241i3f1f353a34222o3j3o1f2e1l1i3o2f383c1m1f3a3n1t1t_323f24312c2d3c2o3i2a1i1i25212c3h1j1l2o363c3n1t1t
p2100
sVsex
p2101
Vf
p2102
sVrate
p2103
V0
p2104
sVnum_positive_votes
p2105
I0
sVnum_votes
p2106
V0
p2107
sVcountry
p2108
VCanada
p2109
sVid
p2110
g1985
sassbsVbible
p2111
(iforvo
ForvoResponse
p2112
(dp2113
g230
I1
sg231
(lp2114
(dp2115
g684
Vhttp://apifree.forvo.com/audio/2a352d3l371o2n233e3d2b282d1l2d2n372838393q1p2a1b263o312i1p2j3d3f3b3j1o2e3p3l392o2p1f1j2i2m291j2b38353c2k2e3e2p1n3f2q2q3k352p2p3a_231n3n321m3p3q3b3d213n3b3g1p2b3a1k3k2g2q3p2h1t1t
p2116
sg686
V3013
p2117
sasg233
g2111
sg234
(dp2118
Vattributes
p2119
(dp2120
Vtotal
p2121
I1
ssVitems
p2122
(lp2123
(dp2124
Vusername
p2125
Vsugardaddy
p2126
sVhits
p2127
V252
p2128
sVcode
p2129
Ven
p2130
sVlangname
p2131
VEnglish
p2132
sVaddtime
p2133
V2008-04-04 20:30:13
p2134
sVnum_votes
p2135
V3
p2136
sVpathogg
p2137
g2116
sVpathmp3
p2138
Vhttp://apifree.forvo.com/audio/1b3l272g2e2g2q2i2n1f3e3g2p2f2m282i1j3a3n1k2c3b243c1o3a2g3k2k3n1b3a2e1h2a2l3b3c2j3f1i3i373i323635243c1j35283p232a1i3m3l2g332h2k1m_332m3n2734242n392i3c2a272i1f2a3a262c2h33283n1t1t
p2139
sVsex
p2140
Vm
p2141
sVrate
p2142
V3
p2143
sVnum_positive_votes
p2144
V3
p2145
sVcountry
p2146
VUnited States
p2147
sVid
p2148
g2117
sassbsVwidowed 
p2149
(iforvo
ForvoResponse
p2150
(dp2151
g4
I0
sg5
(lp2152
sg7
(dp2153
Vattributes
p2154
(dp2155
Vtotal
p2156
I0
ssVitems
p2157
(lp2158
ssbsVi
p2159
(iforvo
ForvoResponse
p2160
(dp2161
S'num_recordings'
p2162
I6
sS'recordings'
p2163
(lp2164
(dp2165
S'ogg'
p2166
Vhttp://apifree.forvo.com/audio/243o3o3n1b1f3b21293j2l333k3c331n2h2m3j333k26331f1i233p3k293936372n3f2p1f3c3g3b381i2p1i1k1o393g3a223i1i2a3o1b353m363k37312533333p26381g2b1i2h1o2e2636252f2n2h2m2f311p3n322e3n1t1t_1n221i273q1l1j1h2336243m3g2n362o323p2p2k263n1t1t
p2167
sS'id'
p2168
V171263
p2169
sa(dp2170
g2166
Vhttp://apifree.forvo.com/audio/1k2p2k3c2m2d1b283h1h2h1b1m2c3d1l2b3f3i313m1l1l1b1n2e3e2i363b1n3k3n2a231l3j2d1n1i291l1l3j233e3c2i1g322m3l2p25263h3k3d39261k1l393a_2p2f2g383q2g2o242i2j2p3c2k3o3n1g2o3e322d38371t1t
p2171
sg2168
V80761
p2172
sa(dp2173
g2166
Vhttp://apifree.forvo.com/audio/2e3e222m2p1b3p2e33361i2o3b2k1k372j33371i1o2d3q2m1h3j3b1l2e342h3c251h3n3n3m2l241p3n2a2f3e351j3839233h3h262h36393q392321342f362o2k_2k1g3b3a3q2f331b1m2i3k292a3k2h3821292l263p371t1t
p2174
sg2168
V52895
p2175
sa(dp2176
g2166
Vhttp://apifree.forvo.com/audio/2g2k3q3a3f313i3f3b252b282a253d3e382g3a333f2p2a2f2m21252m361b2e2n293m2d343m2222251b2l2m2h3q3k253c3i2h1l3l2k231n3i243h392426322q1h1i211l381k3p3q3k242e2f2c3a1j361m1p36312n2i2h1t1t_1n1i3d383c223c2p332l3o3m2d3d262k1m2k3k1b3o3n1t1t
p2177
sg2168
V400889
p2178
sa(dp2179
g2166
Vhttp://apifree.forvo.com/audio/2c2k352d263c2f2o28213p2o1h221h3838262m332j3n3c2m2k311h2e282c252g1j1j1j21323j27242m323l3c3f2i2734291o3o3m1n293p2c3a2j2e271n3b2a37352j1h231n2n312h23273j323j2m21262i1f2e2725211t1t_36251b2a3m261k37273j3b273n2m351l2l392m2o1f2h1t1t
p2180
sg2168
V567595
p2181
sa(dp2182
g2166
Vhttp://apifree.forvo.com/audio/3e3m351o3c2a2f322a3h293a3l32333d3c321m3b3g2k3l25283j3i3b313e1m363m2f383a2p1p2o2f2k1b1j262g1l2n363f1p3a2c393q2221383c1l1b1o2o333a2h3c373g1p1g262h2i2n3b3k1n251p271o1h3n3g3a3n1t1t_32311g392q2k282i1i1j2e3p3l3c3d3f3k2a342h1b371t1t
p2183
sg2168
V587635
p2184
sasS'word'
p2185
g2159
sS'json'
p2186
(dp2187
Vattributes
p2188
(dp2189
Vtotal
p2190
I6
ssVitems
p2191
(lp2192
(dp2193
Vusername
p2194
Veris
p2195
sVhits
p2196
V144
p2197
sVcode
p2198
Ven
p2199
sVlangname
p2200
VEnglish
p2201
sVaddtime
p2202
V2009-05-06 03:45:23
p2203
sVpathogg
p2204
g2167
sVpathmp3
p2205
Vhttp://apifree.forvo.com/audio/1f3d213n2j313h3j212q3f223h1h3923321p3237392i1p2f253k1o3h2p3p2i2h222j3g38363m21263p333k3n292h1n2b3k2j3j1i2f2o332p36281n3i1f1m332m2d2m341j3f242l3932312o3m2m292f2d3f1i3e3723371t1t_333q3c293g373p252b353p3l243g1f342q2p292d282h1t1t
p2206
sVsex
p2207
Vf
p2208
sVrate
p2209
V5
p2210
sVnum_positive_votes
p2211
V5
p2212
sVnum_votes
p2213
V5
p2214
sVcountry
p2215
VUnited States
p2216
sVid
p2217
g2169
sa(dp2218
Vusername
p2219
Vfalconfling
p2220
sVhits
p2221
V108
p2222
sVcode
p2223
Ven
p2224
sVlangname
p2225
VEnglish
p2226
sVaddtime
p2227
V2008-12-15 16:50:20
p2228
sVpathogg
p2229
g2171
sVpathmp3
p2230
Vhttp://apifree.forvo.com/audio/1l3g3d3d283h1b1g3o3c3p1m383d2h2h1p1m2c2l342d2q2e2h323n3d2c1j253d322n2p1b221b342e1n2h3k2p28382d241f3o3c331p22363c222a1m3f243k1o35_223h2m3q1n2k291m3g2p3f3k29272621332m2b363b3n1t1t
p2231
sVsex
p2232
Vm
p2233
sVrate
p2234
V3
p2235
sVnum_positive_votes
p2236
V3
p2237
sVnum_votes
p2238
V3
p2239
sVcountry
p2240
VUnited States
p2241
sVid
p2242
g2172
sa(dp2243
Vusername
p2244
Vmooncow
p2245
sVhits
p2246
V51
p2247
sVcode
p2248
Ven
p2249
sVlangname
p2250
VEnglish
p2251
sVaddtime
p2252
V2008-11-02 05:11:11
p2253
sVpathogg
p2254
g2174
sVpathmp3
p2255
Vhttp://apifree.forvo.com/audio/1m1p1n3j213p2e2e3q3f2p2d3537233c1b3k3b313q2j3a2k2c3d343g262l3o2i28381j2i3e3l2b1j2l3b2n2f2c283i2q2h392m1l2a2n22271l242i322a381m31_2a3f1n1p3e1k342o2c2a3b3b1o2g2f2q3n1p291j37371t1t
p2256
sVsex
p2257
Vm
p2258
sVrate
p2259
V1
p2260
sVnum_positive_votes
p2261
V1
p2262
sVnum_votes
p2263
V1
p2264
sVcountry
p2265
VUnited Kingdom
p2266
sVid
p2267
g2175
sa(dp2268
Vusername
p2269
Vkunk
p2270
sVhits
p2271
V5
p2272
sVcode
p2273
Ven
p2274
sVlangname
p2275
VEnglish
p2276
sVaddtime
p2277
V2009-12-22 23:39:31
p2278
sVpathogg
p2279
g2177
sVpathmp3
p2280
Vhttp://apifree.forvo.com/audio/212b3q2e232i3l3b3n312n2n2d2a3n2a392o1b3l2h2i3o1p1p3d293h2o2b283l372h2l3h3l1l2k3q3a2a292h3g373k1i2c2d2c3q392d29393j3d3p271m2j2n263k3l251n363o2i2n2f34233h3q262b2135232m232n2h1t1t_2f1f3622321p213q332k273h272h2l2i1o3o2d342n371t1t
p2281
sVsex
p2282
Vm
p2283
sVrate
p2284
V0
p2285
sVnum_positive_votes
p2286
I0
sVnum_votes
p2287
V0
p2288
sVcountry
p2289
VCzech Republic
p2290
sVid
p2291
g2178
sa(dp2292
Vusername
p2293
VKomal_K
p2294
sVhits
p2295
NsVcode
p2296
Ven
p2297
sVlangname
p2298
VEnglish
p2299
sVaddtime
p2300
V2010-05-04 17:12:41
p2301
sVpathogg
p2302
g2180
sVpathmp3
p2303
Vhttp://apifree.forvo.com/audio/2a2c2a31243h2835352e3i1l3d3b2q1f1o2c282o1f2g3q2d3n243p3p2a35323j3l3o393p1n2h3h2o262p1o213m1h383c2p1g3a391n3c3n1m2o2h373i3i1k2n2e3a3q2334311n1p292d1j2q26321j3b263p1i3i1b363n1t1t_2f3o3o1f331b23273j28231g362g1m231g2f2i1p3m3n1t1t
p2304
sVsex
p2305
Vf
p2306
sVrate
p2307
V0
p2308
sVnum_positive_votes
p2309
I0
sVnum_votes
p2310
V0
p2311
sVcountry
p2312
VIndia
p2313
sVid
p2314
g2181
sa(dp2315
Vusername
p2316
VFrazJam
p2317
sVhits
p2318
NsVcode
p2319
Ven
p2320
sVlangname
p2321
VEnglish
p2322
sVaddtime
p2323
V2010-05-18 21:18:54
p2324
sVpathogg
p2325
g2183
sVpathmp3
p2326
Vhttp://apifree.forvo.com/audio/283f1n1p1b2j2a2c2f3f372p293k2o3e2l2c253c23253d1g233f3h3e2i292j383627322e1k1g2h1b2i2l261f3a2c3p332832283b3j3e3n3k352e311k1o2c2g2l241g3f322i21341k3k1o343b25382h3h24323m3l3d3n1t1t_2i2j3l392i1b1b273o1j3l3c2h2d3f1g393b1g1h223n1t1t
p2327
sVsex
p2328
Vm
p2329
sVrate
p2330
V0
p2331
sVnum_positive_votes
p2332
I0
sVnum_votes
p2333
V0
p2334
sVcountry
p2335
VUnited Kingdom
p2336
sVid
p2337
g2184
sassbsVdie
p2338
(iforvo
ForvoResponse
p2339
(dp2340
g4
I1
sg5
(lp2341
(dp2342
g19
Vhttp://apifree.forvo.com/audio/3m321m1f261h1b3m3n271f212n3q2o3j323l1i1k3p2o272q3739392h3l2k283537373532213k3g2m2c372f2p3a283k2c2c3a1g2m3p1l3i353e2h343g3m3c2e1i_3a1f3m1p263d351f222e382d223g1m1f2139383327371t1t
p2343
sg21
V88964
p2344
sasg7
(dp2345
Vattributes
p2346
(dp2347
Vtotal
p2348
I1
ssVitems
p2349
(lp2350
(dp2351
Vusername
p2352
Vfalconfling
p2353
sVhits
p2354
V231
p2355
sVcode
p2356
Ven
p2357
sVlangname
p2358
VEnglish
p2359
sVaddtime
p2360
V2009-01-02 15:48:45
p2361
sVpathogg
p2362
g2343
sVpathmp3
p2363
Vhttp://apifree.forvo.com/audio/2q2n1j1g2e3f22352f1k1p392m28382b3d3m3b2h3n3g2l291o1g2724342p342l2j2k3g261f281l3k3c1k3l1f3q1n25292b2a3f393j2f2n221m1h3d382q2o1g2i_2i3p1k2n2n2d352p3f3c1o322b1n2e3m3p3a3b2k352h1t1t
p2364
sVsex
p2365
Vm
p2366
sVrate
p2367
V0
p2368
sVnum_positive_votes
p2369
I0
sVnum_votes
p2370
V0
p2371
sVcountry
p2372
VUnited States
p2373
sVid
p2374
g2344
sassbsVNo 
p2375
(iforvo
ForvoResponse
p2376
(dp2377
g4
I5
sg5
(lp2378
(dp2379
g19
Vhttp://apifree.forvo.com/audio/1b3d1n1o3j3k2n373e262j3d37342k3m231h3b2n2p3c2c1k1h2l342g363b3e1h1i271o313d253l3i1i3g3c2l1i282m2a3j2l2j1i2h3p3l1p3a1j2p31282c3f3d_3g2l3k3e1l331n3i261o3e2g3o2g3k1f2p1o1p3l34371t1t
p2380
sg21
V164465
p2381
sa(dp2382
g19
Vhttp://apifree.forvo.com/audio/22382a3a2k3b3i1n3e3k2q1k272a263q382m2o381o2k29373p1f233d3533353m3d2k2d2i293f1m362m372l2m2a3a1g3p3a1k3l1l2e2f281m253235332i2h1m3d_2d352g2h2d3a1m263p2m351h1j2k1f3i242o3i3l3a2h1t1t
p2383
sg21
V595781
p2384
sa(dp2385
g19
Vhttp://apifree.forvo.com/audio/3f311m28323n282l3i2c2b2g211n3b1g1g3o3e3q3n2a22392d2l3q36231n2n1l2k3q2f1p1j2o3o2m3i2o3g2n2a3g1b1g363i1o1b21313n383b212k3m36233j2g_3g321p2q3i1k1l1g1j3c3j1i2n2a24343f3227353k2h1t1t
p2386
sg21
V329463
p2387
sa(dp2388
g19
Vhttp://apifree.forvo.com/audio/32242h223p3h253f362h2b372l341n28353b2m3q1n2a1o3g2f2o25372f3m311o25282d363e3n39362m3k1o233p2h1j3n3e3f1g2k2131293o3n3g22343e1f2o23_2q251l2h2b31392g3q1f33222n3o3d3c2a2c1o2m2i2h1t1t
p2389
sg21
V663718
p2390
sa(dp2391
g19
Vhttp://apifree.forvo.com/audio/2e23383h262d3k2k1l262a223b3o252o2i323f3c1l343n241p2o2d1l2k1p2j1m283g392a3m383d3m3g2d1o3l1n3l2n3j3i1p1g1n2p2m3g3a3l3g2b2l21252b1j_231i1f3i322h3h33282f243q393o241n393i2k391k3n1t1t
p2392
sg21
V577453
p2393
sasg7
(dp2394
Vattributes
p2395
(dp2396
Vtotal
p2397
I5
ssVitems
p2398
(lp2399
(dp2400
Vusername
p2401
Vsnowcrocus
p2402
sVhits
p2403
V328
p2404
sVcode
p2405
Ven
p2406
sVlangname
p2407
VEnglish
p2408
sVaddtime
p2409
V2009-05-02 05:04:06
p2410
sVpathogg
p2411
g2380
sVpathmp3
p2412
Vhttp://apifree.forvo.com/audio/2j2o3e391n2o3b2f1b281g2m2f2626323l2b3g1k1j213g1f2432343n3a1m2e3d3k3g2o3c1i2m3e2m343m3a3d2o38282j39323g2i3q252q2l362j3c3b1k1p3539_1g1p243q2k3n2m1l353k3q2n372l2q322m1p352m3m371t1t
p2413
sVsex
p2414
Vf
p2415
sVrate
p2416
V3
p2417
sVnum_positive_votes
p2418
V3
p2419
sVnum_votes
p2420
V3
p2421
sVcountry
p2422
VUnited States
p2423
sVid
p2424
g2381
sa(dp2425
Vusername
p2426
Vfloridagirl
p2427
sVhits
p2428
NsVcode
p2429
Ven
p2430
sVlangname
p2431
VEnglish
p2432
sVaddtime
p2433
V2010-05-24 02:41:42
p2434
sVpathogg
p2435
g2383
sVpathmp3
p2436
Vhttp://apifree.forvo.com/audio/2a233q1j2e373l343h2q242134271o2j39351m1g2f241h1b2b22242p211n3o3c3j223m362o3m232j3q2d3f253b3j2p3e2j1i3n1m3q1p2q2k3139361k3a2k2528_263o1o363f253g2e3i2g3c292d3e1l3h2n3m3n3b1f2h1t1t
p2437
sVsex
p2438
Vf
p2439
sVrate
p2440
V0
p2441
sVnum_positive_votes
p2442
I0
sVnum_votes
p2443
V0
p2444
sVcountry
p2445
VUnited States
p2446
sVid
p2447
g2384
sa(dp2448
Vusername
p2449
VShotgunLobotomy
p2450
sVhits
p2451
V35
p2452
sVcode
p2453
Ven
p2454
sVlangname
p2455
VEnglish
p2456
sVaddtime
p2457
V2009-10-01 03:03:15
p2458
sVpathogg
p2459
g2386
sVpathmp3
p2460
Vhttp://apifree.forvo.com/audio/2q3f363n2m3q2a3m3c1n393a233d1o3n1i342j1n2b2d21322m2o351i2c2d3i1k221b2o2p332b1m3p3k3b2l1b2m3i1n1p1h2i372d341b2p3f2m2g2g373k233n2o_3f3p2g2626373p3d1p3d3k333h2c1l382p293m381p211t1t
p2461
sVsex
p2462
Vm
p2463
sVrate
p2464
V0
p2465
sVnum_positive_votes
p2466
I0
sVnum_votes
p2467
V0
p2468
sVcountry
p2469
VUnited States
p2470
sVid
p2471
g2387
sa(dp2472
Vusername
p2473
VdanniWishartx
p2474
sVhits
p2475
NsVcode
p2476
Ven
p2477
sVlangname
p2478
VEnglish
p2479
sVaddtime
p2480
V2010-07-08 22:20:41
p2481
sVpathogg
p2482
g2389
sVpathmp3
p2483
Vhttp://apifree.forvo.com/audio/1p3a1m1g1b2k1n3g29333n2o3f2232362d1l312c2o1k1m3o39241k3e1b1h3q2i1o3e3a3o1b3i211m2a291o3g3d393j241f3l371i3b363q1i1l1g263p251p272j_282n2b3d2q1n1i233f2b341i1b2b1o2c3e21342d2f3n1t1t
p2484
sVsex
p2485
Vf
p2486
sVrate
p2487
V-1
p2488
sVnum_positive_votes
p2489
I0
sVnum_votes
p2490
V1
p2491
sVcountry
p2492
VUnited Kingdom
p2493
sVid
p2494
g2390
sa(dp2495
Vusername
p2496
Vkevin98230
p2497
sVhits
p2498
NsVcode
p2499
Ven
p2500
sVlangname
p2501
VEnglish
p2502
sVaddtime
p2503
V2010-05-11 19:54:51
p2504
sVpathogg
p2505
g2392
sVpathmp3
p2506
Vhttp://apifree.forvo.com/audio/3q243c282b1k2e3h3i2f2b2m322b353c3p2m2m1f3q2q2i31243c291i2h3h1b283j1n2q383k1p3a1l1m372c2m3b2j3f2q2p2i2p291p2m3d2j25371o2o2p263b2o_3a3p2c2f2j372i3j3f3g3p3k281f3j273h212a2m3e211t1t
p2507
sVsex
p2508
Vm
p2509
sVrate
p2510
V-2
p2511
sVnum_positive_votes
p2512
I0
sVnum_votes
p2513
V2
p2514
sVcountry
p2515
VUnited Kingdom
p2516
sVid
p2517
g2393
sassbsVup
p2518
(iforvo
ForvoResponse
p2519
(dp2520
g230
I1
sg231
(lp2521
(dp2522
g684
Vhttp://apifree.forvo.com/audio/2o383n3n2n2f3l2e2e353k2e3i2j331k1f3b1g1k393f1k333h3d25362h2c3m2n3a2g382527342d2l281n322k3h282i3l33382o3f1l36373f241l2p3m1h2i1b28_2f292d1m36333b3a2h2q3a233a1o33212d3i3m2c34211t1t
p2523
sg686
V163855
p2524
sasg233
g2518
sg234
(dp2525
Vattributes
p2526
(dp2527
Vtotal
p2528
I1
ssVitems
p2529
(lp2530
(dp2531
Vusername
p2532
Vpalashdave
p2533
sVhits
p2534
V226
p2535
sVcode
p2536
Ven
p2537
sVlangname
p2538
VEnglish
p2539
sVaddtime
p2540
V2009-05-02 01:45:56
p2541
sVnum_votes
p2542
V0
p2543
sVpathogg
p2544
g2523
sVpathmp3
p2545
Vhttp://apifree.forvo.com/audio/3n1m26282p1p3a3p293h393g3h3k282q2n3q2f3d1g1i2m2528252q3e371g3p311b211k271f2n3m24232d282g27391i371n3b2g2n341b38312n241b2k2n242j24_331l273q372f251o37273f393m33282q1o1o37363l371t1t
p2546
sVsex
p2547
Vm
p2548
sVrate
p2549
V0
p2550
sVnum_positive_votes
p2551
I0
sVcountry
p2552
VUnited Kingdom
p2553
sVid
p2554
g2524
sassbsVlevee
p2555
(iforvo
ForvoResponse
p2556
(dp2557
g4
I1
sg5
(lp2558
(dp2559
g19
Vhttp://apifree.forvo.com/audio/3g35261p39242l1h2a2n1o3l3c372o3g2i2a39382h2b3p3f1n213b1p3n3e382c3k3h352n2d2h3i2p281k3b3f3q3b3e373h3a352k293a3j3f2i28332i3l3j1f2l_2q272q2g311b34221l35333q2a3c3e3e2i2i221k2e211t1t
p2560
sg21
V131654
p2561
sasg7
(dp2562
Vattributes
p2563
(dp2564
Vtotal
p2565
I1
ssVitems
p2566
(lp2567
(dp2568
Vusername
p2569
Vchristineglobal
p2570
sVhits
p2571
V263
p2572
sVcode
p2573
Ven
p2574
sVlangname
p2575
VEnglish
p2576
sVaddtime
p2577
V2009-02-25 18:53:57
p2578
sVpathogg
p2579
g2560
sVpathmp3
p2580
Vhttp://apifree.forvo.com/audio/1i3k2c233g2m3g3c1b2k3l333c372a3p3j1j2m2l3c2l2n3a2k2j2h1i3n3a2m1l232q372p3c381b3f3e2i2d3b2i2h1i2m1h3c1n223c25393o2j311p3a1o272b2g_3b3a2o1n263o2f3m3m2a3c34313n2b3j3n3e24261p3n1t1t
p2581
sVsex
p2582
Vf
p2583
sVrate
p2584
V0
p2585
sVnum_positive_votes
p2586
I0
sVnum_votes
p2587
V0
p2588
sVcountry
p2589
VUnited States
p2590
sVid
p2591
g2561
sassbsVsang
p2592
(iforvo
ForvoResponse
p2593
(dp2594
g4
I1
sg5
(lp2595
(dp2596
g19
Vhttp://apifree.forvo.com/audio/2k363a263k341i3o261f2h331o3n1g3g1o283i3p2e1f35221k35383b22341p3i2f3h2c263g2m353h3q1f2d271i322p1o273c35262n323j3c2k372d2a2e1f2a2h351h1n2n2b1n382g3q233e2g2d2e292e342m2j1b332h1t1t_2n363h1g2a363a3k2j3d2o3b391f3b322d1m1k3k3i371t1t
p2597
sg21
V377027
p2598
sasg7
(dp2599
Vattributes
p2600
(dp2601
Vtotal
p2602
I1
ssVitems
p2603
(lp2604
(dp2605
Vusername
p2606
Vvaguemarx
p2607
sVhits
p2608
V101
p2609
sVcode
p2610
Ven
p2611
sVlangname
p2612
VEnglish
p2613
sVaddtime
p2614
V2009-11-24 05:51:53
p2615
sVpathogg
p2616
g2597
sVpathmp3
p2617
Vhttp://apifree.forvo.com/audio/29252k323q3o393b1f312f262e1b3c3o372b2d2g222n283p232g2h2p3f1k1n1l3l2q2g2n2i351b3o3q1j3o3l333m332g363h3b1o3j1b3m1n2b3p1l3m363q2m352j262j1f2e2p3i3l2g392a3i2o26323q312p3b2p2f2h1t1t_382g3q1i3m3l281i3h1j2h251h3c2a3f2p36393j2e211t1t
p2618
sVsex
p2619
Vm
p2620
sVrate
p2621
V0
p2622
sVnum_positive_votes
p2623
I0
sVnum_votes
p2624
V0
p2625
sVcountry
p2626
VAustralia
p2627
sVid
p2628
g2598
sassbsVtime
p2629
(iforvo
ForvoResponse
p2630
(dp2631
g347
I3
sg348
(lp2632
(dp2633
g351
Vhttp://apifree.forvo.com/audio/2p3m3p2i1b1l2p2p2h383b3p243p3o2j3j3c263j3n2o342c3k2h2e3a3k212l1j3i3q351n2b1o3c2d3n3k1p2926272k3p2o1b1o3q2636211p2n2k333a2m2p1h2d_2f213p3c2k271n2h2n1j2c2l3a3e3h2f332e2h3m2c211t1t
p2634
sg353
V80777
p2635
sa(dp2636
g351
Vhttp://apifree.forvo.com/audio/2k253i1i2m3q1k292q1o1l383h242f2q3m292j3a1i3d2e2p2l2b3c341n1n2b2h31262m2e3g381n2a2k2a2o3b2f3d2m1m1i1n2g2i32373c2b3o1o292q2k331p3a_312b2d3e2c2n3j3238381b3i3k33291l1j3q2j1b2l211t1t
p2637
sg353
V746813
p2638
sa(dp2639
g351
Vhttp://apifree.forvo.com/audio/332q3e3l2h22383q3d251h313822321i22212323223a28353f1n1n311m393n1m2o2m2d2d3h2d2h36322i271m38343a25242c3i3h371l3m3q3j35373j2q1l2b3j_3b2p1h2724392j391l362p1i3p2n1o2o28323c2k1k3n1t1t
p2640
sg353
V6854
p2641
sasg358
g2629
sg359
(dp2642
Vattributes
p2643
(dp2644
Vtotal
p2645
I3
ssVitems
p2646
(lp2647
(dp2648
Vusername
p2649
Vfalconfling
p2650
sVhits
p2651
V282
p2652
sVcode
p2653
Ven
p2654
sVlangname
p2655
VEnglish
p2656
sVaddtime
p2657
V2008-12-15 17:29:34
p2658
sVpathogg
p2659
g2634
sVpathmp3
p2660
Vhttp://apifree.forvo.com/audio/3p1m2b3c1p3b1h1p2i2a2j3q3g3m2l362q221g1f332o3i3e2h1m2c1i383m2a223g3e1l1j3f3d2i2i1k3k2d2b2l3m2c1i3k2q3n3k3g352d2n1h2i2d241n262435_2h2n3b1g3g2m2j3l3l1l343j3f3d1k2b313b1b2m1m371t1t
p2661
sVsex
p2662
Vm
p2663
sVrate
p2664
V1
p2665
sVnum_positive_votes
p2666
V1
p2667
sVnum_votes
p2668
V1
p2669
sVcountry
p2670
VUnited States
p2671
sVid
p2672
g2635
sa(dp2673
Vusername
p2674
VFiddlesticks
p2675
sVhits
p2676
NsVcode
p2677
Ven
p2678
sVlangname
p2679
VEnglish
p2680
sVaddtime
p2681
V2010-08-31 02:15:26
p2682
sVpathogg
p2683
g2637
sVpathmp3
p2684
Vhttp://apifree.forvo.com/audio/392q382d1j3p3h273b3f2e3e3c3i232l3n3q3g3f2h1h2e2j2k1n34212d3g3o3g3j2g1h1m393c3g1p1h2n2e3p353k2h38351m2a333c3l3i3232371o262h2j3j21_3n3l3b373c3h391i2p2h2a393j2l322a2i312e322f3n1t1t
p2685
sVsex
p2686
Vm
p2687
sVrate
p2688
V0
p2689
sVnum_positive_votes
p2690
I0
sVnum_votes
p2691
V0
p2692
sVcountry
p2693
VCanada
p2694
sVid
p2695
g2638
sa(dp2696
Vusername
p2697
Vbjhinton
p2698
sVhits
p2699
V204
p2700
sVcode
p2701
Ven
p2702
sVlangname
p2703
VEnglish
p2704
sVaddtime
p2705
V2008-04-11 21:08:05
p2706
sVpathogg
p2707
g2640
sVpathmp3
p2708
Vhttp://apifree.forvo.com/audio/332j2m2n3n2l2j383k2q323525333l2l313q3i23312g2j1k243d39332c2f1n1j3q232a1n3q3a1f213b2n2a2q1f1o3a291l3h33212h2d1i2d2a331p1h1l272i1i_1i221o3b381h3j1l2q1o2f2h3i1i272f2k311l28373n1t1t
p2709
sVsex
p2710
Vm
p2711
sVrate
p2712
V0
p2713
sVnum_positive_votes
p2714
I0
sVnum_votes
p2715
V0
p2716
sVcountry
p2717
VUnited States
p2718
sVid
p2719
g2641
sassbsVago
p2720
(iforvo
ForvoResponse
p2721
(dp2722
g347
I2
sg348
(lp2723
(dp2724
g351
Vhttp://apifree.forvo.com/audio/393e3m2d2f2l1h33212o1p3k3c2q342d343i293a1p1l282i3j3q2g31293j2o3i33363i1j392b39392o2b3q3p2p2b1f2n241p1n22261b1k23223n3p1b1i3m1h36_2a3m3d3i2h2k263i3o1g3q1b1i2j1f2q1i3i1p23232h1t1t
p2725
sg353
V22717
p2726
sa(dp2727
g351
Vhttp://apifree.forvo.com/audio/2123293a3f2m1f2p3d1i263p2b243j2g381p293d3i2g2e1l313c24352q3j1l3h1o251p3k243h342h2c2o2l26243i2i1f273a2q39311f253b24292o3b1o2q262n_2e231o2n363737321g33323g2q3m1m332q3p2i3k3a211t1t
p2728
sg353
V6725
p2729
sasg358
g2720
sg359
(dp2730
Vattributes
p2731
(dp2732
Vtotal
p2733
I2
ssVitems
p2734
(lp2735
(dp2736
Vusername
p2737
VKaji
p2738
sVhits
p2739
V405
p2740
sVcode
p2741
Ven
p2742
sVlangname
p2743
VEnglish
p2744
sVaddtime
p2745
V2008-06-25 23:22:48
p2746
sVpathogg
p2747
g2725
sVpathmp3
p2748
Vhttp://apifree.forvo.com/audio/2e2n3p2e3j322f383g3c281p3n3i3d2c362j343q3h2323373i2332383l2831333832392e3p38381p3o3a2c211l291i3m3o3j3m3g1f213o1f2h3a3m2f352k3j3m_3n392b293n2e3a36381b2g2f24372e2i311i3n2b1k3n1t1t
p2749
sVsex
p2750
Vm
p2751
sVrate
p2752
V3
p2753
sVnum_positive_votes
p2754
V3
p2755
sVnum_votes
p2756
V3
p2757
sVcountry
p2758
VUnited States
p2759
sVid
p2760
g2726
sa(dp2761
Vusername
p2762
Vbjhinton
p2763
sVhits
p2764
V196
p2765
sVcode
p2766
Ven
p2767
sVlangname
p2768
VEnglish
p2769
sVaddtime
p2770
V2008-04-11 20:45:22
p2771
sVpathogg
p2772
g2728
sVpathmp3
p2773
Vhttp://apifree.forvo.com/audio/3b3l353k2c3837391i1j2h1o2n2a23211o1p3e2f2d1m2f3g2i3b382k3k213k2k2e3b1g33383g333e1b2i3a2k361m3n2h39322a283i263g29272q3n2f2g1p1o3h_2j2b3o2a2g1b3b3e3k393c2f1h3h223h232a263d3k2h1t1t
p2774
sVsex
p2775
Vm
p2776
sVrate
p2777
V0
p2778
sVnum_positive_votes
p2779
I0
sVnum_votes
p2780
V0
p2781
sVcountry
p2782
VUnited States
p2783
sVid
p2784
g2729
sassbs.