(dp0
Vmore 
p1
(iforvo
ForvoResponse
p2
(dp3
S'num_recordings'
p4
I3
sS'recordings'
p5
(lp6
(dp7
S'ogg'
p8
Vhttp://apifree.forvo.com/audio/3d343p342l1j273k2p353e2b3b3g1b1g2g25262k383c3m3e3g2c2i1b1h2m1o1m1n2j353m2o2e2j3b1n1n3o371n2i35253c2c312k2p2a1o1f3n382f3e1g3p352q_3o2i341l2n261j3l3f3o3p3o3q2g351j1b3g3l1b24211t1t
p9
sS'id'
p10
V151465
p11
sa(dp12
g8
Vhttp://apifree.forvo.com/audio/1m1p243f3b3b3823391k2p3n1f3d3j393p2a3i3p3k233o351f391f2422272o2b2c2c241o1j2n2e2m381m322g3b3b262k37251k1o3a3f1j241g3h2a342b3g3b3n_292b331o1g35213b2n29362731352f3g3k38353n1f371t1t
p13
sg10
V157046
p14
sa(dp15
g8
Vhttp://apifree.forvo.com/audio/323f2m1k2n362j3n2b1g1f373p3i1o2g1h35231g3f3n262h2m352o211g37233d3m1k3b3l3f243o243e2j1i3j3g1n1b3e31253h3h3j3o2m321o1m2d2m252k211l_3m3d3i1j3d1g3c2g2o1j343l2f3o1n3c331n2h233p2h1t1t
p16
sg10
V687404
p17
sasS'json'
p18
(dp19
Vattributes
p20
(dp21
Vtotal
p22
I3
ssVitems
p23
(lp24
(dp25
Vusername
p26
VSar27
p27
sVhits
p28
V375
p29
sVcode
p30
Ven
p31
sVlangname
p32
VEnglish
p33
sVaddtime
p34
V2009-04-15 15:17:27
p35
sVnum_votes
p36
V5
p37
sVpathogg
p38
g9
sVpathmp3
p39
Vhttp://apifree.forvo.com/audio/273j393j3p283p343a1b292g2f3n3b2n3l3k2e1h373o2m2f3k2e233e3f3l3939242j1p2i2a3k3j3o31323p22212n381o3b282m331p273n1k2k263p1k2h2e2h2f_1j37343a2e283p2i1o3o2p1f1o1n1i2b2l2d1n2k32211t1t
p40
sVsex
p41
Vf
p42
sVrate
p43
V5
p44
sVnum_positive_votes
p45
V5
p46
sVcountry
p47
VUnited States
p48
sVid
p49
g11
sa(dp50
Vusername
p51
Vpalashdave
p52
sVhits
p53
V342
p54
sVcode
p55
Ven
p56
sVlangname
p57
VEnglish
p58
sVaddtime
p59
V2009-04-24 00:44:23
p60
sVnum_votes
p61
V4
p62
sVpathogg
p63
g13
sVpathmp3
p64
Vhttp://apifree.forvo.com/audio/293h261f1m1b1j1g232p1k223533373p2i3o283e2b2d3k222d3f1l313q33282k223d2o38382n3h1j31341j332333341j1f3p2o2k3k2424222g373k1b221b1b3g_28222m21243q2l1k3h37271n272h3p3b1i22363d2k2h1t1t
p65
sVsex
p66
Vm
p67
sVrate
p68
V4
p69
sVnum_positive_votes
p70
V4
p71
sVcountry
p72
VUnited Kingdom
p73
sVid
p74
g14
sa(dp75
Vusername
p76
Vgreengobbie92
p77
sVhits
p78
NsVcode
p79
Ven
p80
sVlangname
p81
VEnglish
p82
sVaddtime
p83
V2010-07-26 13:36:46
p84
sVnum_votes
p85
V0
p86
sVpathogg
p87
g16
sVpathmp3
p88
Vhttp://apifree.forvo.com/audio/2i2k2h2l2f3e1m3a353c3j1i2a33362g1i2a342k341i2e391k262b3e1b223j3e392q222o3l3h2c3634323d2h2j3o3o2c1h3a2l283q3e3n1o2d1k2g1o291b3p1n_1f2f3f2p1f2d1g243m2c1n2d38222g2c3p2g3d1b293n1t1t
p89
sVsex
p90
Vm
p91
sVrate
p92
V0
p93
sVnum_positive_votes
p94
I0
sVcountry
p95
VAustralia
p96
sVid
p97
g17
sassbsVbook 
p98
(iforvo
ForvoResponse
p99
(dp100
g4
I5
sg5
(lp101
(dp102
g8
Vhttp://apifree.forvo.com/audio/32231i2b34393h38263d1b2e233b3k1i3q1b1o221m3a1b3g3f1o3l1b1f1o1n1h3g2g3p3d3i1i2j1n3m2b3l2f23352b3o1n3m2j3f1i1p2e3n211o2h253o2d2528_2423212l282k1o3q2j223n3i3m3k361g2i2j1n1p3h211t1t
p103
sg10
V297780
p104
sa(dp105
g8
Vhttp://apifree.forvo.com/audio/3n3q2i1p3q221g252b3i2d1o3q282f2a2h2o2q1j34292o2c26262e3f3d353b3b323c2c3h282q3f1p3i3l1g2k1h1f3j2c3f353i3e1k2b2l282f3p1o3b2l1h3232_2p3e3i3425271m1p1b1h221b3p2134393e25392a3g3n1t1t
p106
sg10
V264342
p107
sa(dp108
g8
Vhttp://apifree.forvo.com/audio/1j373p1k3j3e233k2j3o2l2k363n1o323e2q23382i2o3c1h29243i2d1f3m392d2g392c3g1b353p292n2l3n2l1g2235292c1i371j3p3h333k313c3n1f2p3k3h1k_1b1i252a2b2g1i2f2j3l3n37391f242f242j3a283h371t1t
p109
sg10
V377516
p110
sa(dp111
g8
Vhttp://apifree.forvo.com/audio/3q2c2i3g2h343e3l3p2b3b271g3j3e1p26253i1i1j3l2k2c282q2k343b2j3j1m3k3j2p26262332213p3c2e2o2n3c372k3o3q2b2n3f1l1m313m2i25341m3j1g27_2g1g1n231i262a383q393c392g1p1l1h281h2b252k3n1t1t
p112
sg10
V504005
p113
sa(dp114
g8
Vhttp://apifree.forvo.com/audio/3k3l283h1k1f25372f1i2p211p3c2f353i2g3m323h2j1g3d3q1o27371i2n2e2h28321g1j2p3n3f1n1m1i3l211i3o29353p2m1m2e1k3o1n1o333m1o3c341i3n2l_363l1o263h1n231h1m2e343a383n3b1m2a2d38323i371t1t
p115
sg10
V143105
p116
sasg18
(dp117
Vattributes
p118
(dp119
Vtotal
p120
I5
ssVitems
p121
(lp122
(dp123
Vusername
p124
VAlagon
p125
sVhits
p126
V188
p127
sVcode
p128
Ven
p129
sVlangname
p130
VEnglish
p131
sVaddtime
p132
V2009-09-01 02:43:58
p133
sVnum_votes
p134
V1
p135
sVpathogg
p136
g103
sVpathmp3
p137
Vhttp://apifree.forvo.com/audio/1o28372h3h1f1m332n26312n2q3g38392e3m222f281l1l3p3p21311p1i31331b342m1b2g23252q1i3o2q2p2e2a352b3m3e393f3l1m1g3e392j3f2j2b382k1n3q_36392b2j2k35252q391i3o39281g2g1j1h2e2d1p1n2h1t1t
p138
sVsex
p139
Vm
p140
sVrate
p141
V1
p142
sVnum_positive_votes
p143
V1
p144
sVcountry
p145
VUnited Kingdom
p146
sVid
p147
g104
sa(dp148
Vusername
p149
Vohhhwevad
p150
sVhits
p151
V297
p152
sVcode
p153
Ven
p154
sVlangname
p155
VEnglish
p156
sVaddtime
p157
V2009-08-02 23:21:33
p158
sVnum_votes
p159
V1
p160
sVpathogg
p161
g106
sVpathmp3
p162
Vhttp://apifree.forvo.com/audio/2q3a271o2o213m3k293b1k3i3k3422322l3o2d2b1j2j3b3i2j382b3527241g2m223l213g1p1b2d26343k1l351f2n39362j3b2n2d2l1b3g2o3g1m2c263i2i1p3n_211h3h3g2n343h283o2p1i3b3i21251j2j3l243q2l371t1t
p163
sVsex
p164
Vm
p165
sVrate
p166
V1
p167
sVnum_positive_votes
p168
V1
p169
sVcountry
p170
VUnited States
p171
sVid
p172
g107
sa(dp173
Vusername
p174
VGeoNeil
p175
sVhits
p176
V47
p177
sVcode
p178
Ven
p179
sVlangname
p180
VEnglish
p181
sVaddtime
p182
V2009-11-24 20:44:04
p183
sVnum_votes
p184
V0
p185
sVpathogg
p186
g109
sVpathmp3
p187
Vhttp://apifree.forvo.com/audio/25363k3g2d3o3j3a383n37322g32223l211h2d2g3m3o31223o1l2237293p2e1o3i3a243m3k3d253q3p3k3f3a3b3a2l312l2o3n242p1k2k3f2a3g3n2f1o36333k_393e1k381k2o3m272e3p283h3i1h3g34231m1h331g371t1t
p188
sVsex
p189
Vm
p190
sVrate
p191
V0
p192
sVnum_positive_votes
p193
I0
sVcountry
p194
VUnited Kingdom
p195
sVid
p196
g110
sa(dp197
Vusername
p198
Vgreengobbie92
p199
sVhits
p200
NsVcode
p201
Ven
p202
sVlangname
p203
VEnglish
p204
sVaddtime
p205
V2010-03-08 08:02:37
p206
sVnum_votes
p207
V0
p208
sVpathogg
p209
g112
sVpathmp3
p210
Vhttp://apifree.forvo.com/audio/272e1h3k383d3o1m3h372j373m1o3b1n2l3e1m2d372m1g2l2m26242g351f1b3m3f1m373a393o2q3b393h2p3f1m3339271p1n352p1o1f273b241b2a3g282n3c2p_2i263l283d2e2129343l1m2d3i1n2q3h3n3n332g2q371t1t
p211
sVsex
p212
Vm
p213
sVrate
p214
V0
p215
sVnum_positive_votes
p216
I0
sVcountry
p217
VAustralia
p218
sVid
p219
g113
sa(dp220
Vusername
p221
Vermes
p222
sVhits
p223
V412
p224
sVcode
p225
Ven
p226
sVlangname
p227
VEnglish
p228
sVaddtime
p229
V2009-03-22 11:15:24
p230
sVnum_votes
p231
V0
p232
sVpathogg
p233
g115
sVpathmp3
p234
Vhttp://apifree.forvo.com/audio/321m2e3j3f1b3d2f3o1j1h1f1n2o39311p3n3e2k1g3g1l243a2n3k3o21392g393l3q361p2b341i231n27253e342a24251b3q341p3g2k3p29362g3l322e3d2c1b_3h2h3b3h2n332g2e1g2j3i1n3p2c2d2e2g212e2m1g2h1t1t
p235
sVsex
p236
Vm
p237
sVrate
p238
V0
p239
sVnum_positive_votes
p240
I0
sVcountry
p241
VItaly
p242
sVid
p243
g116
sassbsVmaybe 
p244
(iforvo
ForvoResponse
p245
(dp246
g4
I5
sg5
(lp247
(dp248
g8
Vhttp://apifree.forvo.com/audio/38241g2l212q2f3q373p2d2q3d233a3m3i2i3n2g1k3c2n3j2i1o3722253f1f3k1b1m1n2i3425341k35221m2i1j1o392g292c393d243m3n2f2p1p3g2h2g3g2c1n2l261o3d1n263g2j272e373o353p281n283g3l3m2m211t1t_2j2i323q261f1g2f2n271m29331p3k33312a361h1o371t1t
p249
sg10
V209510
p250
sa(dp251
g8
Vhttp://apifree.forvo.com/audio/1f1m283e322p252b2j1p292i273n263d2d1g1k373j3d243l2d3k231j3j3b3d2j3d3c1o341p31352f3j211m2a2q3o3l2p3j2i38332n332i242d3j3h2q1g1m3m2q1h3k1k3b3k31262l1l2n1n2j3p3g331l2o1n2p2h1k371t1t_2q2h1l2p1o1o2i23212b3o241o2m2g2l312e1f1k24211t1t
p252
sg10
V328427
p253
sa(dp254
g8
Vhttp://apifree.forvo.com/audio/263j2i3b3i2a252d353f223k3f2n2a2q2h2d3k253a3p1f1j1n1h3c2d1l3o2g1g3q3g3h3a2h3i2g3l1l37252a1m2q3i1b1k2a3k2d3g261o3h3h3e1n2p1k3g283j1b1m2o22232p33333c283o363n382j2n292g1i1f1j3n1t1t_263g392o2g3a2b291l2k1n243f3a1g2o2o3b3m23392h1t1t
p255
sg10
V595785
p256
sa(dp257
g8
Vhttp://apifree.forvo.com/audio/2o31382b1j23323a393n1p1f1o2h273l3g1b3p3o3n3e2e2l1o3m252q1h3d3k222d233p1b2l3a351m2f342l1o31271m1l3c1j1p2d331b3q2e2a3d21361n362a2o_1j1f2h2n2g3k1h1p3g3g1l2b2832372d2n2i322e2h371t1t
p258
sg10
V53000
p259
sa(dp260
g8
Vhttp://apifree.forvo.com/audio/313f1l2k3j361i3g1n3l1g2j3f2l1o2g262g2a1f27252k1g1l312e1o2229363a2j2k2n272m2a3j232e222l3l1i2q2l3k322b331h341o2a3o2j25352d243e2q221p2b3f392q3h2d2n2o2l3j1h27281p1k362e3639392h1t1t_2b1m3q233b1o3q2e362p1n3m212f2q2h3k33392n3h211t1t
p261
sg10
V66776
p262
sasg18
(dp263
Vattributes
p264
(dp265
Vtotal
p266
I5
ssVitems
p267
(lp268
(dp269
Vusername
p270
Valison
p271
sVhits
p272
V88
p273
sVcode
p274
Ven
p275
sVlangname
p276
VEnglish
p277
sVaddtime
p278
V2009-05-30 16:55:36
p279
sVnum_votes
p280
V0
p281
sVpathogg
p282
g249
sVpathmp3
p283
Vhttp://apifree.forvo.com/audio/332628233l353k2d3f321p222a23261g2f322f3m1n3o3l1o3n2f2d3k2p2429312d1g332732232h2i39241b3o3f2g2l1l2p3f311p222a3j2i1k1b3f1h3636352n1i27293b2i2p2j1m3l2g1h1o2p36232m3p27213m23211t1t_1l3e2m391i262i223c251l32252o1g2j3i1i381o2d2h1t1t
p284
sVsex
p285
Vf
p286
sVrate
p287
V0
p288
sVnum_positive_votes
p289
I0
sVcountry
p290
VAustralia
p291
sVid
p292
g250
sa(dp293
Vusername
p294
VShotgunLobotomy
p295
sVhits
p296
V38
p297
sVcode
p298
Ven
p299
sVlangname
p300
VEnglish
p301
sVaddtime
p302
V2009-09-30 11:31:37
p303
sVnum_votes
p304
V0
p305
sVpathogg
p306
g252
sVpathmp3
p307
Vhttp://apifree.forvo.com/audio/3f3p1b3i3j2c1k35352g3q2a1n2f3n2g363b2e2a3o35273g363c1l1n2i1i3p3f2j2p331m2g392e222m3o1f3i2i3231292h2l2m213a1b3d3k3f1b2l1k27261p3l1h2i3i1p2l23253p362n321j1n3f3j1g2k213b1p2d2h1t1t_343d212m371j3d36292a1p2c1j2h3m1n373m3c1b33211t1t
p308
sVsex
p309
Vm
p310
sVrate
p311
V0
p312
sVnum_positive_votes
p313
I0
sVcountry
p314
VUnited States
p315
sVid
p316
g253
sa(dp317
Vusername
p318
Vfloridagirl
p319
sVhits
p320
NsVcode
p321
Ven
p322
sVlangname
p323
VEnglish
p324
sVaddtime
p325
V2010-05-24 02:43:16
p326
sVnum_votes
p327
V0
p328
sVpathogg
p329
g255
sVpathmp3
p330
Vhttp://apifree.forvo.com/audio/3l3g1i1o293p2i1n2d2d2l3k3p2n2d3d1j1p2h3a292l1j2n1p372h3e2722353g3q3d2m1l1g1m1j3g363f3c2228383m2d2h352q3k2a241b2q1j2n3b2f243p2d3o362p2p1n1o2q3q243g2l1j1o272i2337213b1n2o3f371t1t_1k35272h1h273j3m3m1b351g281o2p2m1g1b332a1h371t1t
p331
sVsex
p332
Vf
p333
sVrate
p334
V0
p335
sVnum_positive_votes
p336
I0
sVcountry
p337
VUnited States
p338
sVid
p339
g256
sa(dp340
Vusername
p341
Vmooncow
p342
sVhits
p343
V73
p344
sVcode
p345
Ven
p346
sVlangname
p347
VEnglish
p348
sVaddtime
p349
V2008-11-02 14:12:28
p350
sVnum_votes
p351
V0
p352
sVpathogg
p353
g258
sVpathmp3
p354
Vhttp://apifree.forvo.com/audio/391i3o1o39363k2e21352d2p3p2a311o391g311i34362f251k1k1m292l311l3b3q2c1i37293q3a3b352a3k3l25313h3l1b3d2c1k2p3j3h2a2k3f3p2h3j3e232m_3k3f2a1b2c2b23323d1o3f3n313n3k293k353h213f211t1t
p355
sVsex
p356
Vm
p357
sVrate
p358
V0
p359
sVnum_positive_votes
p360
I0
sVcountry
p361
VUnited Kingdom
p362
sVid
p363
g259
sa(dp364
Vusername
p365
VLinkeyEh
p366
sVhits
p367
V71
p368
sVcode
p369
Ven
p370
sVlangname
p371
VEnglish
p372
sVaddtime
p373
V2008-11-22 22:51:47
p374
sVnum_votes
p375
V0
p376
sVpathogg
p377
g261
sVpathmp3
p378
Vhttp://apifree.forvo.com/audio/3g312d3p2q333d313g3k2e2l37261h1g1j2h1l221f2135262n2f2q3c2m2o3d3j3k1m3i3f323h221g2g3i1h3b1l1n321o1j1l1b39293k37272f38231m352n33241i3f1f353a34222o3j3o1f2e1l1i3o2f383c1m1f3a3n1t1t_323f24312c2d3c2o3i2a1i1i25212c3h1j1l2o363c3n1t1t
p379
sVsex
p380
Vf
p381
sVrate
p382
V0
p383
sVnum_positive_votes
p384
I0
sVcountry
p385
VCanada
p386
sVid
p387
g262
sassbsVdirges 
p388
(iforvo
ForvoResponse
p389
(dp390
g4
I0
sg5
(lp391
sg18
(dp392
Vattributes
p393
(dp394
Vtotal
p395
I0
ssVitems
p396
(lp397
ssbsVreturned
p398
(iforvo
ForvoResponse
p399
(dp400
g4
I2
sg5
(lp401
(dp402
g8
Vhttp://apifree.forvo.com/audio/3c3q2g1n323q3j312i3q213c383p2l3g2c1j2d36263c3g243b242e3i273d2a2o2p3n23382l3q3n322e282j2c2b1m22322f2e1n3c322d1m3j252n242p2b1m3225_3k3f3f391i2j2i2h2j2d2b393b3f29312o313n3o1f211t1t
p403
sg10
V34726
p404
sa(dp405
g8
Vhttp://apifree.forvo.com/audio/38343q232h2q372h3k2e2l3e3f1m2a2e3l1m3h3a273d212p3c351o293m3f3p2528392c1j363l3i253c2f2d3h271j3j2q2c3q1l271b2b35332e213d1j2b3f1o1l2m2e282d2d242f28323f262j392834393g3n3m293q371t1t_2m1m2m3a3j1b1n2o3b2i2n3q2h333m3n3e2k3c3l373n1t1t
p406
sg10
V38310
p407
sasg18
(dp408
Vattributes
p409
(dp410
Vtotal
p411
I2
ssVitems
p412
(lp413
(dp414
Vusername
p415
Vfordum
p416
sVhits
p417
V121
p418
sVcode
p419
Ven
p420
sVlangname
p421
VEnglish
p422
sVaddtime
p423
V2008-08-06 13:37:05
p424
sVnum_votes
p425
V0
p426
sVpathogg
p427
g403
sVpathmp3
p428
Vhttp://apifree.forvo.com/audio/2h1g1g2m1h231g341h3b1b2g2a1l361o332h2q27311g2m1g1f2d2k2k2g2g2f322k221n2f3b221n3k1b1l262h1f2h1l2a363l3g2a35343m2d282m232n332i2b34_3n281l3i34381f3c21322k371o1h3f271j2239211i3n1t1t
p429
sVsex
p430
Vf
p431
sVrate
p432
V0
p433
sVnum_positive_votes
p434
I0
sVcountry
p435
VAustralia
p436
sVid
p437
g404
sa(dp438
Vusername
p439
Vanakat
p440
sVhits
p441
V160
p442
sVcode
p443
Ven
p444
sVlangname
p445
VEnglish
p446
sVaddtime
p447
V2008-09-10 02:06:08
p448
sVnum_votes
p449
V0
p450
sVpathogg
p451
g406
sVpathmp3
p452
Vhttp://apifree.forvo.com/audio/1j28262e321i3f293q1f2h3f2i3d231o25351m333l1j213k3d1l35251i371o253d1f1l33252231212m2f311p2e2e313l2h3h353m1f1f1k3d2h391l1l2p1o2f1p2c3h1m2q3g1g253q2n3h34281n1b1b213f2c1k2k1f3n1t1t_1i1o262i1j2h242j333f3d3p391k3a1o3h2q2f393f371t1t
p453
sVsex
p454
Vf
p455
sVrate
p456
V0
p457
sVnum_positive_votes
p458
I0
sVcountry
p459
VUnited States
p460
sVid
p461
g407
sassbsVwidowed 
p462
(iforvo
ForvoResponse
p463
(dp464
g4
I0
sg5
(lp465
sg18
(dp466
Vattributes
p467
(dp468
Vtotal
p469
I0
ssVitems
p470
(lp471
ssbsVhappy 
p472
(iforvo
ForvoResponse
p473
(dp474
g4
I6
sg5
(lp475
(dp476
g8
Vhttp://apifree.forvo.com/audio/3i29252o1n352p271l242d233q2h2o222n2e1h2h3h2n1l38333o3g3f3k382c2e3c2c3135213m27253f1j2q2i332o3a2n2i3m1n3a2q2q3d1g1i1k3f1f2m2q2h1h_33382d2d2e2p1o3n2g3c262626272i32252b2b22333n1t1t
p477
sg10
V595833
p478
sa(dp479
g8
Vhttp://apifree.forvo.com/audio/2c1p1k1o3b2k381m352l2b3o2q3h3g3k1j2a3e1p28242d2b3j2b1l2a3l3o2l3c213j2l3i2b36233l261j361m313f2b1f2b3o1i3e211m352m3b3g343j1l323o2j_3a1h39253g2f2i3n3c1m1n372q1j232g292m3j3h3o2h1t1t
p480
sg10
V2875
p481
sa(dp482
g8
Vhttp://apifree.forvo.com/audio/3o2l3c1k1j3b231m2a3h251g1p3g2p2m2j2j3g392e2o1i3d3f3e3i1k1p3d1i3m362f2k213j2o2j3a3p3g272m3o3a2b2h1b3q1p2c3l2f2c1l3c373h2p1o2j2c3i_1m372i2f1g2o2k1h2k2d1k2h1i3a2q371b2d1j3m31211t1t
p483
sg10
V277710
p484
sa(dp485
g8
Vhttp://apifree.forvo.com/audio/3n353427241l2e3h3b3p2j2j3l2n31261h35241l3o3k3b1f24373835322b2n3h2j3139362a1f382e1j2q383f2g241k1l2a3a3i382g3p2o3c2m1p2c3o1i282h23_2c2h1f3h1l392k3d3c1h2a3o3f2h2n383b233g3i2d211t1t
p486
sg10
V577382
p487
sa(dp488
g8
Vhttp://apifree.forvo.com/audio/2f2k3h3f2n3q1g2n361b392f2k1h3j2c2d391o381b2a2i2m2k2q3j2g3i28212a1g2q1f231b2q1b3l2i3g3p243i213o31323p332i322921213l1b2n2h2l372p3q_2c1o3i3l3l3g1j353q3i2n1m1l3o1l3f343e3o391g3n1t1t
p489
sg10
V252993
p490
sa(dp491
g8
Vhttp://apifree.forvo.com/audio/253m2m3n242n1i291p1k2c2o3k3p1k3l22371n3k2n3d383o2d2e39311b3a3q3m223p3d3a343p2q1n1n331l2q2f1i1p1h25253m392a361m363h2i1m3n283e1n26_3d3934242h3m2q1j2l3a3q2q333d3n3a3k1k2d262k371t1t
p492
sg10
V309698
p493
sasg18
(dp494
Vattributes
p495
(dp496
Vtotal
p497
I6
ssVitems
p498
(lp499
(dp500
Vusername
p501
Vfloridagirl
p502
sVhits
p503
NsVcode
p504
Ven
p505
sVlangname
p506
VEnglish
p507
sVaddtime
p508
V2010-05-24 03:02:17
p509
sVnum_votes
p510
V3
p511
sVpathogg
p512
g477
sVpathmp3
p513
Vhttp://apifree.forvo.com/audio/3h3j242h262b3p3i2i333b3d1k3n1m28362d3h242k2h1m1k2d3a312k2p253k2d392p2c352d351p3j3f3k1j3h2l3q2m3o2c3k252d3q2j351h382f3p3j1p3g362f_1m3h1f2k1o3m21332c1g1j3p1i321k2b2b1k24332g211t1t
p514
sVsex
p515
Vf
p516
sVrate
p517
V3
p518
sVnum_positive_votes
p519
V3
p520
sVcountry
p521
VUnited States
p522
sVid
p523
g478
sa(dp524
Vusername
p525
VNells
p526
sVhits
p527
V976
p528
sVcode
p529
Ven
p530
sVlangname
p531
VEnglish
p532
sVaddtime
p533
V2008-04-04 17:50:58
p534
sVnum_votes
p535
V5
p536
sVpathogg
p537
g480
sVpathmp3
p538
Vhttp://apifree.forvo.com/audio/1k2g3g1h342e2m2m2q3l3f1i1p243h2o2p333424243f2d352i3g23382g353e373h3m2631292c38342b282k2d1g3n3g312a3q2m1f3125363m2p353j2p2m381h1b_2j1k34241h1l3l2j222b39371l1j3c2k1o1l1m2l1m2h1t1t
p539
sVsex
p540
Vm
p541
sVrate
p542
V3
p543
sVnum_positive_votes
p544
V4
p545
sVcountry
p546
VFrance
p547
sVid
p548
g481
sa(dp549
Vusername
p550
Vjeronmjensen
p551
sVhits
p552
V155
p553
sVcode
p554
Ven
p555
sVlangname
p556
VEnglish
p557
sVaddtime
p558
V2009-08-17 19:24:29
p559
sVnum_votes
p560
V1
p561
sVpathogg
p562
g483
sVpathmp3
p563
Vhttp://apifree.forvo.com/audio/322k382o1l213q31342n2b2g3g272k2c2d2m2a3j212j311k3i2f2n2q3o382n2k2c2f1n2e392j3l2o243h1b3m2n2c1k2m3f2i2h3q293f22392o1g333g35373n1i_3h1l2d1b1l2l351h3f2n1o31243d3k3n32292g1i272h1t1t
p564
sVsex
p565
Vm
p566
sVrate
p567
V1
p568
sVnum_positive_votes
p569
V1
p570
sVcountry
p571
VUnited States
p572
sVid
p573
g484
sa(dp574
Vusername
p575
Vkevin98230
p576
sVhits
p577
NsVcode
p578
Ven
p579
sVlangname
p580
VEnglish
p581
sVaddtime
p582
V2010-05-11 19:17:00
p583
sVnum_votes
p584
V1
p585
sVpathogg
p586
g486
sVpathmp3
p587
Vhttp://apifree.forvo.com/audio/2g343g3h2j1k3a2i322m2m2a3o381f3g2j3n1h1k3p2i362j38362i3a1f3q2e1l2h2f341k2g1l2o2m3d3b2i2e2f2a2j3i1o313f352n2e2534351j3a2h391l2p2j_2d2a3o213o3l1b3j39213g3b1g2n363q3k1h39292i371t1t
p588
sVsex
p589
Vm
p590
sVrate
p591
V1
p592
sVnum_positive_votes
p593
V1
p594
sVcountry
p595
VUnited Kingdom
p596
sVid
p597
g487
sa(dp598
Vusername
p599
VJuliusBeezer
p600
sVhits
p601
V165
p602
sVcode
p603
Ven
p604
sVlangname
p605
VEnglish
p606
sVaddtime
p607
V2009-07-18 12:55:09
p608
sVnum_votes
p609
V0
p610
sVpathogg
p611
g489
sVpathmp3
p612
Vhttp://apifree.forvo.com/audio/3n372a2126352h1m351o3e2n32391n2l3o3n2q2334282d3i3g2e1i2f2c3c28282b321f272b313j1m3935263l282b2l3636233p2h3h1h393k2g3139351j2f2f2a_1m3a383f3l373a2b353b24313q32362h312f2m3f333n1t1t
p613
sVsex
p614
Vm
p615
sVrate
p616
V0
p617
sVnum_positive_votes
p618
I0
sVcountry
p619
VUnited Kingdom
p620
sVid
p621
g490
sa(dp622
Vusername
p623
VBenladen
p624
sVhits
p625
V85
p626
sVcode
p627
Ven
p628
sVlangname
p629
VEnglish
p630
sVaddtime
p631
V2009-09-12 02:51:53
p632
sVnum_votes
p633
V1
p634
sVpathogg
p635
g492
sVpathmp3
p636
Vhttp://apifree.forvo.com/audio/2o3m3n2o1n27273p2b3j3b1o2c1p222d2p1l2n1g2f1j3f242i1l3m333i2h2924212j2h2a262a1i231b3n3e1h2o372g1i321f2c2j38272k3a241m373n3n3a2h3m_242p363h2f2a3l3p3q1b233h22272q3g2b2q393n2n211t1t
p637
sVsex
p638
Vm
p639
sVrate
p640
V-1
p641
sVnum_positive_votes
p642
I0
sVcountry
p643
VUnited States
p644
sVid
p645
g493
sassbsVdie
p646
(iforvo
ForvoResponse
p647
(dp648
g4
I1
sg5
(lp649
(dp650
g8
Vhttp://apifree.forvo.com/audio/3m321m1f261h1b3m3n271f212n3q2o3j323l1i1k3p2o272q3739392h3l2k283537373532213k3g2m2c372f2p3a283k2c2c3a1g2m3p1l3i353e2h343g3m3c2e1i_3a1f3m1p263d351f222e382d223g1m1f2139383327371t1t
p651
sg10
V88964
p652
sasg18
(dp653
Vattributes
p654
(dp655
Vtotal
p656
I1
ssVitems
p657
(lp658
(dp659
Vusername
p660
Vfalconfling
p661
sVhits
p662
V231
p663
sVcode
p664
Ven
p665
sVlangname
p666
VEnglish
p667
sVaddtime
p668
V2009-01-02 15:48:45
p669
sVnum_votes
p670
V0
p671
sVpathogg
p672
g651
sVpathmp3
p673
Vhttp://apifree.forvo.com/audio/2q2n1j1g2e3f22352f1k1p392m28382b3d3m3b2h3n3g2l291o1g2724342p342l2j2k3g261f281l3k3c1k3l1f3q1n25292b2a3f393j2f2n221m1h3d382q2o1g2i_2i3p1k2n2n2d352p3f3c1o322b1n2e3m3p3a3b2k352h1t1t
p674
sVsex
p675
Vm
p676
sVrate
p677
V0
p678
sVnum_positive_votes
p679
I0
sVcountry
p680
VUnited States
p681
sVid
p682
g652
sassbsVplayers 
p683
(iforvo
ForvoResponse
p684
(dp685
g4
I2
sg5
(lp686
(dp687
g8
Vhttp://apifree.forvo.com/audio/28253q2e1i283k3j2f2638271o2b1i1b372p1o293h343d1g232l281h2g3f39262h2e3e1g252o2a2q3o3c242i3a1b2j253p2p1g332c2936232o3q371p1k2j2i3q1k1o331o282j3c1m3o2f2b2h1m3b3c3k3j2b3i3o3e211t1t_1i2125381m39233f1b213e373f3133273p341i342c3n1t1t
p688
sg10
V246410
p689
sa(dp690
g8
Vhttp://apifree.forvo.com/audio/2d1i1f2a2p261i262p2i2m3p3h3f2i3l1b353l3g3b3k1j353i3m3m1k39322l231j1j3h2f393f352a3p3m1p3m1l2o1j273m3p1o3d2k3p3m2a1j3h3j21323d3d1k_3238261o2h3q341m293b3k3135262a2h3c1n233e3b211t1t
p691
sg10
V87452
p692
sasg18
(dp693
Vattributes
p694
(dp695
Vtotal
p696
I2
ssVitems
p697
(lp698
(dp699
Vusername
p700
VTopQuark
p701
sVhits
p702
V70
p703
sVcode
p704
Ven
p705
sVlangname
p706
VEnglish
p707
sVaddtime
p708
V2009-07-08 04:27:30
p709
sVnum_votes
p710
V3
p711
sVpathogg
p712
g688
sVpathmp3
p713
Vhttp://apifree.forvo.com/audio/3l2a2b1l2q1i3m2e2g1n2f3g3h3m3i2c1f3239253n2l34391n3k28281n1h3h2p36313233253o2e1h1o2i39352i2m3l3g37292f2d2o3c242g1m1f2i2629271o281p1f28281h3n1l2k372q1o1g3l3433373j2n2123323n1t1t_2m3e2j1g3i2h3o211l393q39243e353o1p333f2a1n211t1t
p714
sVsex
p715
Vm
p716
sVrate
p717
V3
p718
sVnum_positive_votes
p719
V3
p720
sVcountry
p721
VUnited Kingdom
p722
sVid
p723
g689
sa(dp724
Vusername
p725
Vpetaluma
p726
sVhits
p727
V65
p728
sVcode
p729
Ven
p730
sVlangname
p731
VEnglish
p732
sVaddtime
p733
V2008-12-29 18:09:22
p734
sVnum_votes
p735
V0
p736
sVpathogg
p737
g691
sVpathmp3
p738
Vhttp://apifree.forvo.com/audio/2k3c252k2o2f2i283e2o21263f211k3p1j263i1p3o2q3c292i1o3a2f1i3i1h2f393f1b3k223d26242h3f2h3a242n343q1g1b1h2e263d2g1b2b3q3d2c3a2p2334_1l3j3e3o3k3e2e1p21332i3o3n2e1h251j2d1f2d2b371t1t
p739
sVsex
p740
Vf
p741
sVrate
p742
V0
p743
sVnum_positive_votes
p744
I0
sVcountry
p745
VUnited States
p746
sVid
p747
g692
sassbsVher 
p748
(iforvo
ForvoResponse
p749
(dp750
g4
I2
sg5
(lp751
(dp752
g8
Vhttp://apifree.forvo.com/audio/3l211i1k372m213i3e2c2g2d2o1p3o3f39212i2m3f1k3m1k1o1l3q3a24372123242p3f343g3h1i3c371k3a3m223j2d2k2o253e1f313m3m2h33372d241m3f2o2k3l1l1i3p393i331b281j3g2a1m2p2e1l353l263b3m211t1t_2g2p2g1i1f2g1j251f2a2f3h382c311p3h231j2g1j3n1t1t
p753
sg10
V114257
p754
sa(dp755
g8
Vhttp://apifree.forvo.com/audio/1m3o2d2b2e371b3k2o232i3n3j2n2i273i2a262b333q1i1g2m2724351f312c3n3c3f273e2q2h2531222i342625271n2m3b2m3o1m22311j3a252d351f3h3h293o223h393k2b3e1g391n3n3338243i322j2627371i2n211t1t_372k3q1l2i3m1h1h2k3n221i392h2g391j2o1g3i29211t1t
p756
sg10
V184614
p757
sasg18
(dp758
Vattributes
p759
(dp760
Vtotal
p761
I2
ssVitems
p762
(lp763
(dp764
Vusername
p765
Vguspolly
p766
sVhits
p767
V272
p768
sVcode
p769
Ven
p770
sVlangname
p771
VEnglish
p772
sVaddtime
p773
V2009-01-28 00:58:41
p774
sVnum_votes
p775
V2
p776
sVpathogg
p777
g753
sVpathmp3
p778
Vhttp://apifree.forvo.com/audio/2o273m1f1l1k333c1p1i3c2k1o3l3f3a3m2m253h3e212l2g2c1b2c3e373p1n1l2b3o1b342q1f333k25262g1h363h3g2m3l293p3a37281b2i2q3d3e2e292e1g1k3m213m2i352k2h3123211o3l343p3e2l362i1b2q38371t1t_28352c2a1m3d3q3h3m3g2h1f2i1f1n243i1b2q232h211t1t
p779
sVsex
p780
Vm
p781
sVrate
p782
V2
p783
sVnum_positive_votes
p784
V2
p785
sVcountry
p786
VUnited States
p787
sVid
p788
g754
sa(dp789
Vusername
p790
Vpaulzag
p791
sVhits
p792
V95
p793
sVcode
p794
Ven
p795
sVlangname
p796
VEnglish
p797
sVaddtime
p798
V2009-05-13 13:01:59
p799
sVnum_votes
p800
V0
p801
sVpathogg
p802
g756
sVpathmp3
p803
Vhttp://apifree.forvo.com/audio/393e2i2q2e2j2j2l222i1i2n3j3p3m3l3b312539271f2k2g1o3b1o211b222j332f362m1h29272534373n1n2631381j3p3h3l1i1b2m1b3m2q1b223h2c2p241n2133271k341l1p272i2q2m1p2o2g3j3g322d1j1b233a2h1t1t_1h2g1h2h1o1p1p3j2b3m2k1b2g3a2q3h1f351h3h2f371t1t
p804
sVsex
p805
Vm
p806
sVrate
p807
V0
p808
sVnum_positive_votes
p809
I0
sVcountry
p810
VAustralia
p811
sVid
p812
g757
sassbsVNo 
p813
(iforvo
ForvoResponse
p814
(dp815
g4
I5
sg5
(lp816
(dp817
g8
Vhttp://apifree.forvo.com/audio/1b3d1n1o3j3k2n373e262j3d37342k3m231h3b2n2p3c2c1k1h2l342g363b3e1h1i271o313d253l3i1i3g3c2l1i282m2a3j2l2j1i2h3p3l1p3a1j2p31282c3f3d_3g2l3k3e1l331n3i261o3e2g3o2g3k1f2p1o1p3l34371t1t
p818
sg10
V164465
p819
sa(dp820
g8
Vhttp://apifree.forvo.com/audio/22382a3a2k3b3i1n3e3k2q1k272a263q382m2o381o2k29373p1f233d3533353m3d2k2d2i293f1m362m372l2m2a3a1g3p3a1k3l1l2e2f281m253235332i2h1m3d_2d352g2h2d3a1m263p2m351h1j2k1f3i242o3i3l3a2h1t1t
p821
sg10
V595781
p822
sa(dp823
g8
Vhttp://apifree.forvo.com/audio/3f311m28323n282l3i2c2b2g211n3b1g1g3o3e3q3n2a22392d2l3q36231n2n1l2k3q2f1p1j2o3o2m3i2o3g2n2a3g1b1g363i1o1b21313n383b212k3m36233j2g_3g321p2q3i1k1l1g1j3c3j1i2n2a24343f3227353k2h1t1t
p824
sg10
V329463
p825
sa(dp826
g8
Vhttp://apifree.forvo.com/audio/32242h223p3h253f362h2b372l341n28353b2m3q1n2a1o3g2f2o25372f3m311o25282d363e3n39362m3k1o233p2h1j3n3e3f1g2k2131293o3n3g22343e1f2o23_2q251l2h2b31392g3q1f33222n3o3d3c2a2c1o2m2i2h1t1t
p827
sg10
V663718
p828
sa(dp829
g8
Vhttp://apifree.forvo.com/audio/2e23383h262d3k2k1l262a223b3o252o2i323f3c1l343n241p2o2d1l2k1p2j1m283g392a3m383d3m3g2d1o3l1n3l2n3j3i1p1g1n2p2m3g3a3l3g2b2l21252b1j_231i1f3i322h3h33282f243q393o241n393i2k391k3n1t1t
p830
sg10
V577453
p831
sasg18
(dp832
Vattributes
p833
(dp834
Vtotal
p835
I5
ssVitems
p836
(lp837
(dp838
Vusername
p839
Vsnowcrocus
p840
sVhits
p841
V328
p842
sVcode
p843
Ven
p844
sVlangname
p845
VEnglish
p846
sVaddtime
p847
V2009-05-02 05:04:06
p848
sVnum_votes
p849
V3
p850
sVpathogg
p851
g818
sVpathmp3
p852
Vhttp://apifree.forvo.com/audio/2j2o3e391n2o3b2f1b281g2m2f2626323l2b3g1k1j213g1f2432343n3a1m2e3d3k3g2o3c1i2m3e2m343m3a3d2o38282j39323g2i3q252q2l362j3c3b1k1p3539_1g1p243q2k3n2m1l353k3q2n372l2q322m1p352m3m371t1t
p853
sVsex
p854
Vf
p855
sVrate
p856
V3
p857
sVnum_positive_votes
p858
V3
p859
sVcountry
p860
VUnited States
p861
sVid
p862
g819
sa(dp863
Vusername
p864
Vfloridagirl
p865
sVhits
p866
NsVcode
p867
Ven
p868
sVlangname
p869
VEnglish
p870
sVaddtime
p871
V2010-05-24 02:41:42
p872
sVnum_votes
p873
V0
p874
sVpathogg
p875
g821
sVpathmp3
p876
Vhttp://apifree.forvo.com/audio/2a233q1j2e373l343h2q242134271o2j39351m1g2f241h1b2b22242p211n3o3c3j223m362o3m232j3q2d3f253b3j2p3e2j1i3n1m3q1p2q2k3139361k3a2k2528_263o1o363f253g2e3i2g3c292d3e1l3h2n3m3n3b1f2h1t1t
p877
sVsex
p878
Vf
p879
sVrate
p880
V0
p881
sVnum_positive_votes
p882
I0
sVcountry
p883
VUnited States
p884
sVid
p885
g822
sa(dp886
Vusername
p887
VShotgunLobotomy
p888
sVhits
p889
V35
p890
sVcode
p891
Ven
p892
sVlangname
p893
VEnglish
p894
sVaddtime
p895
V2009-10-01 03:03:15
p896
sVnum_votes
p897
V0
p898
sVpathogg
p899
g824
sVpathmp3
p900
Vhttp://apifree.forvo.com/audio/2q3f363n2m3q2a3m3c1n393a233d1o3n1i342j1n2b2d21322m2o351i2c2d3i1k221b2o2p332b1m3p3k3b2l1b2m3i1n1p1h2i372d341b2p3f2m2g2g373k233n2o_3f3p2g2626373p3d1p3d3k333h2c1l382p293m381p211t1t
p901
sVsex
p902
Vm
p903
sVrate
p904
V0
p905
sVnum_positive_votes
p906
I0
sVcountry
p907
VUnited States
p908
sVid
p909
g825
sa(dp910
Vusername
p911
VdanniWishartx
p912
sVhits
p913
NsVcode
p914
Ven
p915
sVlangname
p916
VEnglish
p917
sVaddtime
p918
V2010-07-08 22:20:41
p919
sVnum_votes
p920
V1
p921
sVpathogg
p922
g827
sVpathmp3
p923
Vhttp://apifree.forvo.com/audio/1p3a1m1g1b2k1n3g29333n2o3f2232362d1l312c2o1k1m3o39241k3e1b1h3q2i1o3e3a3o1b3i211m2a291o3g3d393j241f3l371i3b363q1i1l1g263p251p272j_282n2b3d2q1n1i233f2b341i1b2b1o2c3e21342d2f3n1t1t
p924
sVsex
p925
Vf
p926
sVrate
p927
V-1
p928
sVnum_positive_votes
p929
I0
sVcountry
p930
VUnited Kingdom
p931
sVid
p932
g828
sa(dp933
Vusername
p934
Vkevin98230
p935
sVhits
p936
NsVcode
p937
Ven
p938
sVlangname
p939
VEnglish
p940
sVaddtime
p941
V2010-05-11 19:54:51
p942
sVnum_votes
p943
V2
p944
sVpathogg
p945
g830
sVpathmp3
p946
Vhttp://apifree.forvo.com/audio/3q243c282b1k2e3h3i2f2b2m322b353c3p2m2m1f3q2q2i31243c291i2h3h1b283j1n2q383k1p3a1l1m372c2m3b2j3f2q2p2i2p291p2m3d2j25371o2o2p263b2o_3a3p2c2f2j372i3j3f3g3p3k281f3j273h212a2m3e211t1t
p947
sVsex
p948
Vm
p949
sVrate
p950
V-2
p951
sVnum_positive_votes
p952
I0
sVcountry
p953
VUnited Kingdom
p954
sVid
p955
g831
sassbsVup 
p956
(iforvo
ForvoResponse
p957
(dp958
g4
I1
sg5
(lp959
(dp960
g8
Vhttp://apifree.forvo.com/audio/1n2h1i3g3f262o2a2l3d3f391l3e2d2a3l3m3h1k1g1i3f38283c3d1h2a2g1p3h2c1j1l2k3c3n24231h391h3f293a2e313p3h2h2e3f2h2n381n1n1p2c1h29212g_3k2b1n333c3j1k3b1b1n2q2p2n223234251i3q2c3m3n1t1t
p961
sg10
V163855
p962
sasg18
(dp963
Vattributes
p964
(dp965
Vtotal
p966
I1
ssVitems
p967
(lp968
(dp969
Vusername
p970
Vpalashdave
p971
sVhits
p972
V226
p973
sVcode
p974
Ven
p975
sVlangname
p976
VEnglish
p977
sVaddtime
p978
V2009-05-02 01:45:56
p979
sVnum_votes
p980
V0
p981
sVpathogg
p982
g961
sVpathmp3
p983
Vhttp://apifree.forvo.com/audio/1k3j2k3c1g2j2h1n3g2c2l343n2n1l2l2k223a1h3q3h3q3i2d1m243e2f3a2d2c1n2f2o2j1k2b36232m393d1j321i2k3d3q2o253f3l293i293f3e282b3o3j2o2o_2i332f2f2a2c1f1o33341g3n3h1b3h3j1i28333m28371t1t
p984
sVsex
p985
Vm
p986
sVrate
p987
V0
p988
sVnum_positive_votes
p989
I0
sVcountry
p990
VUnited Kingdom
p991
sVid
p992
g962
sassbsVsang
p993
(iforvo
ForvoResponse
p994
(dp995
g4
I1
sg5
(lp996
(dp997
g8
Vhttp://apifree.forvo.com/audio/2k363a263k341i3o261f2h331o3n1g3g1o283i3p2e1f35221k35383b22341p3i2f3h2c263g2m353h3q1f2d271i322p1o273c35262n323j3c2k372d2a2e1f2a2h351h1n2n2b1n382g3q233e2g2d2e292e342m2j1b332h1t1t_2n363h1g2a363a3k2j3d2o3b391f3b322d1m1k3k3i371t1t
p998
sg10
V377027
p999
sasg18
(dp1000
Vattributes
p1001
(dp1002
Vtotal
p1003
I1
ssVitems
p1004
(lp1005
(dp1006
Vusername
p1007
Vvaguemarx
p1008
sVhits
p1009
V101
p1010
sVcode
p1011
Ven
p1012
sVlangname
p1013
VEnglish
p1014
sVaddtime
p1015
V2009-11-24 05:51:53
p1016
sVnum_votes
p1017
V0
p1018
sVpathogg
p1019
g998
sVpathmp3
p1020
Vhttp://apifree.forvo.com/audio/29252k323q3o393b1f312f262e1b3c3o372b2d2g222n283p232g2h2p3f1k1n1l3l2q2g2n2i351b3o3q1j3o3l333m332g363h3b1o3j1b3m1n2b3p1l3m363q2m352j262j1f2e2p3i3l2g392a3i2o26323q312p3b2p2f2h1t1t_382g3q1i3m3l281i3h1j2h251h3c2a3f2p36393j2e211t1t
p1021
sVsex
p1022
Vm
p1023
sVrate
p1024
V0
p1025
sVnum_positive_votes
p1026
I0
sVcountry
p1027
VAustralia
p1028
sVid
p1029
g999
sassbsVbible 
p1030
(iforvo
ForvoResponse
p1031
(dp1032
g4
I1
sg5
(lp1033
(dp1034
g8
Vhttp://apifree.forvo.com/audio/1h2m3j2p2n2b37351b363h3e3k2g3q3q1b3a3l2229331p2q3p1o3j1j1l3o2n2c2o29392c2a1b2c372e2a223l3b3f1k3o1m1l332f1i3q3h3m2f2e332h2g312931_1h3h1f2i1b3b3l2f1k2j342k32312o34263h2h1m1b371t1t
p1035
sg10
V3013
p1036
sasg18
(dp1037
Vattributes
p1038
(dp1039
Vtotal
p1040
I1
ssVitems
p1041
(lp1042
(dp1043
Vusername
p1044
Vsugardaddy
p1045
sVhits
p1046
V252
p1047
sVcode
p1048
Ven
p1049
sVlangname
p1050
VEnglish
p1051
sVaddtime
p1052
V2008-04-04 20:30:13
p1053
sVnum_votes
p1054
V3
p1055
sVpathogg
p1056
g1035
sVpathmp3
p1057
Vhttp://apifree.forvo.com/audio/1n372m3d27383d3m3d333c2a2e2l1n1h362d212m1l2o1k3f2m1h1k37223g363q2m3d2n2h343a1h2m1j1j3a23223q2b1j2n35342c25232n2g293c3a2m3d1k3f26_3c1p3a32383q1g3g3b3i243e233g3b1b392n3p241i3n1t1t
p1058
sVsex
p1059
Vm
p1060
sVrate
p1061
V3
p1062
sVnum_positive_votes
p1063
V3
p1064
sVcountry
p1065
VUnited States
p1066
sVid
p1067
g1036
sassbsVlevee
p1068
(iforvo
ForvoResponse
p1069
(dp1070
g4
I1
sg5
(lp1071
(dp1072
g8
Vhttp://apifree.forvo.com/audio/3g35261p39242l1h2a2n1o3l3c372o3g2i2a39382h2b3p3f1n213b1p3n3e382c3k3h352n2d2h3i2p281k3b3f3q3b3e373h3a352k293a3j3f2i28332i3l3j1f2l_2q272q2g311b34221l35333q2a3c3e3e2i2i221k2e211t1t
p1073
sg10
V131654
p1074
sasg18
(dp1075
Vattributes
p1076
(dp1077
Vtotal
p1078
I1
ssVitems
p1079
(lp1080
(dp1081
Vusername
p1082
Vchristineglobal
p1083
sVhits
p1084
V263
p1085
sVcode
p1086
Ven
p1087
sVlangname
p1088
VEnglish
p1089
sVaddtime
p1090
V2009-02-25 18:53:57
p1091
sVnum_votes
p1092
V0
p1093
sVpathogg
p1094
g1073
sVpathmp3
p1095
Vhttp://apifree.forvo.com/audio/1i3k2c233g2m3g3c1b2k3l333c372a3p3j1j2m2l3c2l2n3a2k2j2h1i3n3a2m1l232q372p3c381b3f3e2i2d3b2i2h1i2m1h3c1n223c25393o2j311p3a1o272b2g_3b3a2o1n263o2f3m3m2a3c34313n2b3j3n3e24261p3n1t1t
p1096
sVsex
p1097
Vf
p1098
sVrate
p1099
V0
p1100
sVnum_positive_votes
p1101
I0
sVcountry
p1102
VUnited States
p1103
sVid
p1104
g1074
sassbsVsave 
p1105
(iforvo
ForvoResponse
p1106
(dp1107
g4
I1
sg5
(lp1108
(dp1109
g8
Vhttp://apifree.forvo.com/audio/1o2l2j3k2c3m263g1l3c3a2h1j3k2b2l3a3f233m1b1j2m2l3h2a2f2c212c1h352g2i2q1b3g2k1o223n2f313d262g3a291b2o3o323q1b2l322b2l362o382k2c1j_3b1g2m3d2n1p3a1i2n2q331g2n3a3l3b3d38251m1g211t1t
p1110
sg10
V163870
p1111
sasg18
(dp1112
Vattributes
p1113
(dp1114
Vtotal
p1115
I1
ssVitems
p1116
(lp1117
(dp1118
Vusername
p1119
Vpalashdave
p1120
sVhits
p1121
V148
p1122
sVcode
p1123
Ven
p1124
sVlangname
p1125
VEnglish
p1126
sVaddtime
p1127
V2009-05-02 01:48:35
p1128
sVnum_votes
p1129
V0
p1130
sVpathogg
p1131
g1110
sVpathmp3
p1132
Vhttp://apifree.forvo.com/audio/3b3d3i2m2f3g3g2h391k2j2e243h1h3m273b1f213b3c3c291g2l2n32363c3d2b293q3k311b3l3h1n3p2j2336313f2f2f213j3m3i1i3b2o292b3j313d3e223234_2p1j241p2p1h3h1k1n1b3l273i1h2d2c1j2g1j282f211t1t
p1133
sVsex
p1134
Vm
p1135
sVrate
p1136
V0
p1137
sVnum_positive_votes
p1138
I0
sVcountry
p1139
VUnited Kingdom
p1140
sVid
p1141
g1111
sassbsVsmile
p1142
(iforvo
ForvoResponse
p1143
(dp1144
g4
I3
sg5
(lp1145
(dp1146
g8
Vhttp://apifree.forvo.com/audio/2d342335233c2m323c2f1b2l2a3f1i1i2i342q1m1b2m322c212p221b1f343f281j2f373d2n3d3k1o2m2o1l1h331f39393m34383k2g3k3l2q2522313p263c372c2d1b1n3b3h2l272c1b22392l1l2c2o2d2a3k363f3j3n1t1t_2136252g322q373l3p2221223a2m33313h3m2q2o3i371t1t
p1147
sg10
V161138
p1148
sa(dp1149
g8
Vhttp://apifree.forvo.com/audio/2l2g1f3a3k262b281j2n3o3o2f3g39342i2b2f362b2h392i3q3f373l2m2n2b3m1j3n3m3m2d3f2o2k3n3f2q323c373e323n35282529383a3q3p3l24313o2m37233k2c1n3p373j353l2n3a331g322e2a2m351o213d3b2h1t1t_2i3l2q3g2e2f2m1i2a283a341p2b1n2d1o3p261h1i2h1t1t
p1150
sg10
V301452
p1151
sa(dp1152
g8
Vhttp://apifree.forvo.com/audio/261n3l333c2i392133273c3g2g2j3321232529341p1m3d312a3n2a2e1o2b1m2b1n2622251f1b3g34243m1g1m2a3d2g1i3g3q2a3a1p3b2j3g2p1m26363f3p1l1m_223g3n3n3m2m2m2a2m2326391j2g3m3g1f372p1m2d2h1t1t
p1153
sg10
V68927
p1154
sasg18
(dp1155
Vattributes
p1156
(dp1157
Vtotal
p1158
I3
ssVitems
p1159
(lp1160
(dp1161
Vusername
p1162
Vbrapbrap
p1163
sVhits
p1164
V293
p1165
sVcode
p1166
Ven
p1167
sVlangname
p1168
VEnglish
p1169
sVaddtime
p1170
V2009-04-30 07:49:18
p1171
sVnum_votes
p1172
V3
p1173
sVpathogg
p1174
g1147
sVpathmp3
p1175
Vhttp://apifree.forvo.com/audio/1h1f2c332g1n3e2g3c2o1f2c1j252k231o312a3h3j1b2m3k1n2p1m3m1g1k2l2m3q2m2m22333m2o3m283626353g363f2n1n2l3j3q2j221h2g3g2o24373b2d3k242l3d1o2q2q1p273p2m22273j363d3g3e2i3l1i3525211t1t_1p3k3o3n2j241h2l1o372o2822292d3e2i2f3b243b371t1t
p1176
sVsex
p1177
Vf
p1178
sVrate
p1179
V3
p1180
sVnum_positive_votes
p1181
V3
p1182
sVcountry
p1183
VUnited Kingdom
p1184
sVid
p1185
g1148
sa(dp1186
Vusername
p1187
Vcarlosmurger
p1188
sVhits
p1189
V45
p1190
sVcode
p1191
Ven
p1192
sVlangname
p1193
VEnglish
p1194
sVaddtime
p1195
V2009-09-04 23:27:17
p1196
sVnum_votes
p1197
V0
p1198
sVpathogg
p1199
g1150
sVpathmp3
p1200
Vhttp://apifree.forvo.com/audio/232q261h292l2q34372125213e2p2g251n2e321n1j3f3l2j2f222e3f1g3o2j1o2621232c3n2n1g2e3o362c291f1k38262p2e1h3i3o2l3o2p3p2e3n1m332g3m1j3i3b3l3e3731381b3i3p2m211l333h3c3e383m2c323n1t1t_343e1i223o3f313b2m3a1h3d213b3g382f3b2o3325371t1t
p1201
sVsex
p1202
Vm
p1203
sVrate
p1204
V0
p1205
sVnum_positive_votes
p1206
I0
sVcountry
p1207
VSpain
p1208
sVid
p1209
g1151
sa(dp1210
Vusername
p1211
Vspidra
p1212
sVhits
p1213
V193
p1214
sVcode
p1215
Ven
p1216
sVlangname
p1217
VEnglish
p1218
sVaddtime
p1219
V2008-11-26 08:11:30
p1220
sVnum_votes
p1221
V0
p1222
sVpathogg
p1223
g1153
sVpathmp3
p1224
Vhttp://apifree.forvo.com/audio/1b313a291p3m1k1k313h261p2m252m1b2k3e2a2g3b2a2j3p3j3h1b36232637342h1p2m1f2d2g332526243j3i1j2a3i361m3n32233j3i3k3g3p233o273n242p3m_25383d1m2e1m251p3k343h1h25292e1j3h29213k2i3n1t1t
p1225
sVsex
p1226
Vf
p1227
sVrate
p1228
V0
p1229
sVnum_positive_votes
p1230
I0
sVcountry
p1231
VUnited States
p1232
sVid
p1233
g1154
sassbsVme 
p1234
(iforvo
ForvoResponse
p1235
(dp1236
g4
I1
sg5
(lp1237
(dp1238
g8
Vhttp://apifree.forvo.com/audio/241f2f1k271b3421213b261b341h2c323k392f233n2m371k1g2b2n3h3g2m1j1i3a3h372a213723323j3j2c312i1l333a3q3o2g27362o3e2g3i2m3k3i24242f273p2a3e241f372n2a3n37263g272l3c252k35392432211t1t_3h281j212g3c2l1k3f3l3n2g2c213i211p293l371p3n1t1t
p1239
sg10
V163817
p1240
sasg18
(dp1241
Vattributes
p1242
(dp1243
Vtotal
p1244
I1
ssVitems
p1245
(lp1246
(dp1247
Vusername
p1248
Vpalashdave
p1249
sVhits
p1250
V108
p1251
sVcode
p1252
Ven
p1253
sVlangname
p1254
VEnglish
p1255
sVaddtime
p1256
V2009-05-02 01:36:49
p1257
sVnum_votes
p1258
V0
p1259
sVpathogg
p1260
g1239
sVpathmp3
p1261
Vhttp://apifree.forvo.com/audio/2g2h3k3p3c2d1p1j3d281i321l3h3i35291i34262c272j2l3h2c1o313p1l3l3h1m3k2f2a1m1k362b36332d3g1h1b372i2n1o2a2e1f2539231m2i1l1m1j3f2a1k1b371i1k3p25343m2m1l1h261m3e3e3q2h2i3o2325211t1t_2p1p1g322a253e3n1k3f3b3m2a1m3g271n2l1n3j31371t1t
p1262
sVsex
p1263
Vm
p1264
sVrate
p1265
V0
p1266
sVnum_positive_votes
p1267
I0
sVcountry
p1268
VUnited Kingdom
p1269
sVid
p1270
g1240
sassbs.